(dp1
S'files'
p2
(dp3
S'venv_lib_python2_7_site-packages_jinja2_environment'
p4
(dp5
S'index'
p6
(dp7
S'html_filename'
p8
S'venv_lib_python2_7_site-packages_jinja2_environment.html'
p9
sS'name'
p10
S'venv/lib/python2.7/site-packages/jinja2/environment'
p11
sS'nums'
p12
ccopy_reg
_reconstructor
p13
(ccoverage.results
Numbers
p14
c__builtin__
object
p15
NtRp16
(dp17
S'n_files'
p18
I1
sS'n_branches'
p19
I0
sS'n_statements'
p20
I488
sS'n_excluded'
p21
I0
sS'n_partial_branches'
p22
I0
sS'n_missing'
p23
I280
sS'n_missing_branches'
p24
I0
sbssS'hash'
p25
S'\xe4\x18C=bc\xd7=\x91\xd4O\xde\x9a\xd6\xbf\xa0'
p26
ssS'venv_lib_python2_7_site-packages_sqlalchemy_orm_sync'
p27
(dp28
g6
(dp29
g8
S'venv_lib_python2_7_site-packages_sqlalchemy_orm_sync.html'
p30
sg10
S'venv/lib/python2.7/site-packages/sqlalchemy/orm/sync'
p31
sg12
g13
(g14
g15
NtRp32
(dp33
g18
I1
sg19
I0
sg20
I56
sg21
I0
sg22
I0
sg23
I42
sg24
I0
sbssg25
S'\x07\xaf\x81\x90@L\xc7|Tf\x1d}\xdao\x85\xd7'
p34
ssS'venv_lib_python2_7_site-packages_sqlalchemy_event_attr'
p35
(dp36
g6
(dp37
g8
S'venv_lib_python2_7_site-packages_sqlalchemy_event_attr.html'
p38
sg10
S'venv/lib/python2.7/site-packages/sqlalchemy/event/attr'
p39
sg12
g13
(g14
g15
NtRp40
(dp41
g18
I1
sg19
I0
sg20
I213
sg21
I0
sg22
I0
sg23
I67
sg24
I0
sbssg25
S'\x844\xb8\x04z\xe4u\x81\xb8l+g.\x13\x8c{'
p42
ssS'venv_lib_python2_7_site-packages_flask_ext___init__'
p43
(dp44
g6
(dp45
g8
S'venv_lib_python2_7_site-packages_flask_ext___init__.html'
p46
sg10
S'venv/lib/python2.7/site-packages/flask/ext/__init__'
p47
sg12
g13
(g14
g15
NtRp48
(dp49
g18
I1
sg19
I0
sg20
I7
sg21
I0
sg22
I0
sg23
I0
sg24
I0
sbssg25
S'\xc7\xd4\x92\x9b\xb0\xb4h\xf1Rs\xd6\xf8vw\xdd\x07'
p50
ssS'venv_lib_python2_7_site-packages_jinja2_utils'
p51
(dp52
g6
(dp53
g8
S'venv_lib_python2_7_site-packages_jinja2_utils.html'
p54
sg10
S'venv/lib/python2.7/site-packages/jinja2/utils'
p55
sg12
g13
(g14
g15
NtRp56
(dp57
g18
I1
sg19
I0
sg20
I263
sg21
I0
sg22
I0
sg23
I154
sg24
I0
sbssg25
S"\xcd$\x12\x91s\xe7\xbf\xb8'_w\x87;\xedQ2"
p58
ssS'venv_lib_python2_7_site-packages_sqlalchemy_engine_result'
p59
(dp60
g6
(dp61
g8
S'venv_lib_python2_7_site-packages_sqlalchemy_engine_result.html'
p62
sg10
S'venv/lib/python2.7/site-packages/sqlalchemy/engine/result'
p63
sg12
g13
(g14
g15
NtRp64
(dp65
g18
I1
sg19
I0
sg20
I446
sg21
I0
sg22
I0
sg23
I279
sg24
I0
sbssg25
S'\x80\x03\xbc\xb0\xc4"O\xf7Q\x07\n\xf4x_\xd8\x05'
p66
ssS'venv_lib_python2_7_site-packages_sqlalchemy_sql_schema'
p67
(dp68
g6
(dp69
g8
S'venv_lib_python2_7_site-packages_sqlalchemy_sql_schema.html'
p70
sg10
S'venv/lib/python2.7/site-packages/sqlalchemy/sql/schema'
p71
sg12
g13
(g14
g15
NtRp72
(dp73
g18
I1
sg19
I0
sg20
I1024
sg21
I0
sg22
I0
sg23
I514
sg24
I0
sbssg25
S'Q\xacy\x04(\x05D\xc9\x92\x90-#q\x91!\xa9'
p74
ssS'venv_lib_python2_7_site-packages_sqlalchemy_event_api'
p75
(dp76
g6
(dp77
g8
S'venv_lib_python2_7_site-packages_sqlalchemy_event_api.html'
p78
sg10
S'venv/lib/python2.7/site-packages/sqlalchemy/event/api'
p79
sg12
g13
(g14
g15
NtRp80
(dp81
g18
I1
sg19
I0
sg20
I24
sg21
I0
sg22
I0
sg23
I3
sg24
I0
sbssg25
S'H\xf4\xe5\xb5$\xcaY0\x8cA\xa9\xbf4\x84\xfa\xe0'
p82
ssS'venv_lib_python2_7_site-packages_jinja2_ext'
p83
(dp84
g6
(dp85
g8
S'venv_lib_python2_7_site-packages_jinja2_ext.html'
p86
sg10
S'venv/lib/python2.7/site-packages/jinja2/ext'
p87
sg12
g13
(g14
g15
NtRp88
(dp89
g18
I1
sg19
I0
sg20
I305
sg21
I0
sg22
I0
sg23
I241
sg24
I0
sbssg25
S'\xf2\xe7\xbc,\x81\xdb\xc6\xee\x8f\xd3a\x1eGu\x19\x12'
p90
ssS'venv_lib_python2_7_site-packages_sqlalchemy_util_langhelpers'
p91
(dp92
g6
(dp93
g8
S'venv_lib_python2_7_site-packages_sqlalchemy_util_langhelpers.html'
p94
sg10
S'venv/lib/python2.7/site-packages/sqlalchemy/util/langhelpers'
p95
sg12
g13
(g14
g15
NtRp96
(dp97
g18
I1
sg19
I0
sg20
I629
sg21
I0
sg22
I0
sg23
I267
sg24
I0
sbssg25
S'\xd9J\xb9\tK\xffheje(\x8aNJM\xf1'
p98
ssS'venv_lib_python2_7_site-packages_sqlalchemy_orm_dependency'
p99
(dp100
g6
(dp101
g8
S'venv_lib_python2_7_site-packages_sqlalchemy_orm_dependency.html'
p102
sg10
S'venv/lib/python2.7/site-packages/sqlalchemy/orm/dependency'
p103
sg12
g13
(g14
g15
NtRp104
(dp105
g18
I1
sg19
I0
sg20
I478
sg21
I0
sg22
I0
sg23
I371
sg24
I0
sbssg25
S'\xf8\xcd\x14\x9eV\x9f0O-c\x869\xdbX\x80\xc9'
p106
ssS'venv_lib_python2_7_site-packages_sqlalchemy_orm_unitofwork'
p107
(dp108
g6
(dp109
g8
S'venv_lib_python2_7_site-packages_sqlalchemy_orm_unitofwork.html'
p110
sg10
S'venv/lib/python2.7/site-packages/sqlalchemy/orm/unitofwork'
p111
sg12
g13
(g14
g15
NtRp112
(dp113
g18
I1
sg19
I0
sg20
I325
sg21
I0
sg22
I0
sg23
I155
sg24
I0
sbssg25
S'Bi\xe2\x19\xeb\t\xcc\xe1\x97I\x0b\x17\x9dX9\xc5'
p114
ssS'venv_lib_python2_7_site-packages_flask_wtf__compat'
p115
(dp116
g6
(dp117
g8
S'venv_lib_python2_7_site-packages_flask_wtf__compat.html'
p118
sg10
S'venv/lib/python2.7/site-packages/flask_wtf/_compat'
p119
sg12
g13
(g14
g15
NtRp120
(dp121
g18
I1
sg19
I0
sg20
I14
sg21
I0
sg22
I0
sg23
I8
sg24
I0
sbssg25
S'\x84I\xf2\x83\x06,JI\xb3Yi4\x14\x11\x06\xfb'
p122
ssS'venv_lib_python2_7_site-packages_flask_sqlalchemy__compat'
p123
(dp124
g6
(dp125
g8
S'venv_lib_python2_7_site-packages_flask_sqlalchemy__compat.html'
p126
sg10
S'venv/lib/python2.7/site-packages/flask_sqlalchemy/_compat'
p127
sg12
g13
(g14
g15
NtRp128
(dp129
g18
I1
sg19
I0
sg20
I16
sg21
I0
sg22
I0
sg23
I6
sg24
I0
sbssg25
S'\xa5\xa8y\x10{\xe5\xfcm\x0f\xc6\xd4\x1a\xf0\x90Jh'
p130
ssS'venv_lib_python2_7_site-packages_jinja2_defaults'
p131
(dp132
g6
(dp133
g8
S'venv_lib_python2_7_site-packages_jinja2_defaults.html'
p134
sg10
S'venv/lib/python2.7/site-packages/jinja2/defaults'
p135
sg12
g13
(g14
g15
NtRp136
(dp137
g18
I1
sg19
I0
sg20
I19
sg21
I0
sg22
I0
sg23
I0
sg24
I0
sbssg25
S'\xe2s1\x07\x11\xcc\xb8t@\xa5n<\x98\x97"j'
p138
ssS'venv_lib_python2_7_site-packages_werkzeug_formparser'
p139
(dp140
g6
(dp141
g8
S'venv_lib_python2_7_site-packages_werkzeug_formparser.html'
p142
sg10
S'venv/lib/python2.7/site-packages/werkzeug/formparser'
p143
sg12
g13
(g14
g15
NtRp144
(dp145
g18
I1
sg19
I0
sg20
I246
sg21
I4
sg22
I0
sg23
I173
sg24
I0
sbssg25
S'mR{\x9c\xd3\x12\xce_\x1a\x152rIz\xd7\xae'
p146
ssS'venv_lib_python2_7_site-packages_flask_config'
p147
(dp148
g6
(dp149
g8
S'venv_lib_python2_7_site-packages_flask_config.html'
p150
sg10
S'venv/lib/python2.7/site-packages/flask/config'
p151
sg12
g13
(g14
g15
NtRp152
(dp153
g18
I1
sg19
I0
sg20
I52
sg21
I0
sg22
I0
sg23
I21
sg24
I0
sbssg25
S'\xcc\x9bxG\xcdU\x94at\x14\x86\xa3\x82\xcd&\x1b'
p154
ssS'venv_lib_python2_7_site-packages_sqlalchemy_types'
p155
(dp156
g6
(dp157
g8
S'venv_lib_python2_7_site-packages_sqlalchemy_types.html'
p158
sg10
S'venv/lib/python2.7/site-packages/sqlalchemy/types'
p159
sg12
g13
(g14
g15
NtRp160
(dp161
g18
I1
sg19
I0
sg20
I4
sg21
I0
sg22
I0
sg23
I0
sg24
I0
sbssg25
S'\x85\x92\xe3\x02\x0f\x9dI\xf0U\xb3\xb2\x83\xb0*\xd4\xc3'
p162
ssS'venv_lib_python2_7_site-packages_jinja2_compiler'
p163
(dp164
g6
(dp165
g8
S'venv_lib_python2_7_site-packages_jinja2_compiler.html'
p166
sg10
S'venv/lib/python2.7/site-packages/jinja2/compiler'
p167
sg12
g13
(g14
g15
NtRp168
(dp169
g18
I1
sg19
I0
sg20
I1030
sg21
I0
sg22
I0
sg23
I534
sg24
I0
sbssg25
S'\xf6\x11\xc3\x1a\xfeYf\x9f\xa5\x15\xc2\x80S=\x12\xe6'
p170
ssS'forms'
p171
(dp172
g6
(dp173
g8
S'forms.html'
p174
sg10
g171
sg12
g13
(g14
g15
NtRp175
(dp176
g18
I1
sg19
I0
sg20
I19
sg21
I0
sg22
I0
sg23
I0
sg24
I0
sbssg25
S'\x04R\xb3\x8fKK\xfbs\xf6@\xd8v:\xc9n\x10'
p177
ssS'venv_lib_python2_7_site-packages_wtforms_meta'
p178
(dp179
g6
(dp180
g8
S'venv_lib_python2_7_site-packages_wtforms_meta.html'
p181
sg10
S'venv/lib/python2.7/site-packages/wtforms/meta'
p182
sg12
g13
(g14
g15
NtRp183
(dp184
g18
I1
sg19
I0
sg20
I40
sg21
I0
sg22
I0
sg23
I19
sg24
I0
sbssg25
S'S\xe8FI\xdc\x1f\x1f\x9b\xd6\x18T\xde\x9b\x90\x9f\xb6'
p185
ssS'venv_lib_python2_7_site-packages_sqlalchemy_sql_util'
p186
(dp187
g6
(dp188
g8
S'venv_lib_python2_7_site-packages_sqlalchemy_sql_util.html'
p189
sg10
S'venv/lib/python2.7/site-packages/sqlalchemy/sql/util'
p190
sg12
g13
(g14
g15
NtRp191
(dp192
g18
I1
sg19
I0
sg20
I287
sg21
I0
sg22
I0
sg23
I196
sg24
I0
sbssg25
S'@\xacT\x81\x99rP\nk\x12\x9cF\x1en\xe7\xde'
p193
ssS'venv_lib_python2_7_site-packages_sqlalchemy_orm_deprecated_interfaces'
p194
(dp195
g6
(dp196
g8
S'venv_lib_python2_7_site-packages_sqlalchemy_orm_deprecated_interfaces.html'
p197
sg10
S'venv/lib/python2.7/site-packages/sqlalchemy/orm/deprecated_interfaces'
p198
sg12
g13
(g14
g15
NtRp199
(dp200
g18
I1
sg19
I0
sg20
I91
sg21
I0
sg22
I0
sg23
I50
sg24
I0
sbssg25
S'?\x88"\xa2N\x08G\xc5\x00\x1f\x96\xc1\x90\xc4\x06R'
p201
ssS'venv_lib_python2_7_site-packages_sqlalchemy_dialects_sqlite_pysqlcipher'
p202
(dp203
g6
(dp204
g8
S'venv_lib_python2_7_site-packages_sqlalchemy_dialects_sqlite_pysqlcipher.html'
p205
sg10
S'venv/lib/python2.7/site-packages/sqlalchemy/dialects/sqlite/pysqlcipher'
p206
sg12
g13
(g14
g15
NtRp207
(dp208
g18
I1
sg19
I0
sg20
I28
sg21
I0
sg22
I0
sg23
I15
sg24
I0
sbssg25
S'\xc0\xb5\xa7\x91\x97 f\xaf\x98\xd6\x08\xe4.\xce/\t'
p209
ssS'venv_lib_python2_7_site-packages_wtforms_ext_csrf_fields'
p210
(dp211
g6
(dp212
g8
S'venv_lib_python2_7_site-packages_wtforms_ext_csrf_fields.html'
p213
sg10
S'venv/lib/python2.7/site-packages/wtforms/ext/csrf/fields'
p214
sg12
g13
(g14
g15
NtRp215
(dp216
g18
I1
sg19
I0
sg20
I7
sg21
I0
sg22
I0
sg23
I1
sg24
I0
sbssg25
S'a\xbeb\xa19%\x0enZZ\xc0\x81\t\x92?\xe7'
p217
ssS'venv_lib_python2_7_site-packages_sqlalchemy_event_base'
p218
(dp219
g6
(dp220
g8
S'venv_lib_python2_7_site-packages_sqlalchemy_event_base.html'
p221
sg10
S'venv/lib/python2.7/site-packages/sqlalchemy/event/base'
p222
sg12
g13
(g14
g15
NtRp223
(dp224
g18
I1
sg19
I0
sg20
I88
sg21
I0
sg22
I0
sg23
I20
sg24
I0
sbssg25
S'\xc6\xa1\xfbR\x8a\xb3\x8c\xdd\xacC\x9dHh\x1c<\x15'
p225
ssS'venv_lib_python2_7_site-packages_flask_wtf_recaptcha_fields'
p226
(dp227
g6
(dp228
g8
S'venv_lib_python2_7_site-packages_flask_wtf_recaptcha_fields.html'
p229
sg10
S'venv/lib/python2.7/site-packages/flask_wtf/recaptcha/fields'
p230
sg12
g13
(g14
g15
NtRp231
(dp232
g18
I1
sg19
I0
sg20
I10
sg21
I0
sg22
I0
sg23
I2
sg24
I0
sbssg25
S'b\xa9\xc8#Ez,\xaf\x89\x9c\x1b\x90f\xdd\x81>'
p233
ssS'venv_lib_python2_7_site-packages_werkzeug_local'
p234
(dp235
g6
(dp236
g8
S'venv_lib_python2_7_site-packages_werkzeug_local.html'
p237
sg10
S'venv/lib/python2.7/site-packages/werkzeug/local'
p238
sg12
g13
(g14
g15
NtRp239
(dp240
g18
I1
sg19
I0
sg20
I210
sg21
I0
sg22
I0
sg23
I64
sg24
I0
sbssg25
S'\xc0U\x91\x84\x02\xba=\x0b(\xc1(\xd8\x8f\xde\x93M'
p241
ssS'venv_lib_python2_7_site-packages_sqlalchemy_util_topological'
p242
(dp243
g6
(dp244
g8
S'venv_lib_python2_7_site-packages_sqlalchemy_util_topological.html'
p245
sg10
S'venv/lib/python2.7/site-packages/sqlalchemy/util/topological'
p246
sg12
g13
(g14
g15
NtRp247
(dp248
g18
I1
sg19
I0
sg20
I46
sg21
I0
sg22
I0
sg23
I8
sg24
I0
sbssg25
S'}\n+~\xa6\x98\xb6\xab\xb3]\xac\xc7\xcco\xc3\x8d'
p249
ssS'venv_lib_python2_7_site-packages_jinja2_exceptions'
p250
(dp251
g6
(dp252
g8
S'venv_lib_python2_7_site-packages_jinja2_exceptions.html'
p253
sg10
S'venv/lib/python2.7/site-packages/jinja2/exceptions'
p254
sg12
g13
(g14
g15
NtRp255
(dp256
g18
I1
sg19
I0
sg20
I70
sg21
I0
sg22
I0
sg23
I47
sg24
I0
sbssg25
S'\xf3z\xf9\xb0i}\xb8\xf8a\x05\xda\n?\x1c\xfb\x1d'
p257
ssS'venv_lib_python2_7_site-packages_jinja2_runtime'
p258
(dp259
g6
(dp260
g8
S'venv_lib_python2_7_site-packages_jinja2_runtime.html'
p261
sg10
S'venv/lib/python2.7/site-packages/jinja2/runtime'
p262
sg12
g13
(g14
g15
NtRp263
(dp264
g18
I1
sg19
I0
sg20
I291
sg21
I0
sg22
I0
sg23
I159
sg24
I0
sbssg25
S',\x18\xb0\xeb\xc5\x1a\x98\x1ab7\xb2\x8a\xe3\x9f%\xbb'
p265
ssS'venv_lib_python2_7_site-packages_sqlalchemy_exc'
p266
(dp267
g6
(dp268
g8
S'venv_lib_python2_7_site-packages_sqlalchemy_exc.html'
p269
sg10
S'venv/lib/python2.7/site-packages/sqlalchemy/exc'
p270
sg12
g13
(g14
g15
NtRp271
(dp272
g18
I1
sg19
I0
sg20
I104
sg21
I0
sg22
I0
sg23
I29
sg24
I0
sbssg25
S'^ud\x9f\xa3*\xae\xed\xa5\x92D5>2_e'
p273
ssS'venv_lib_python2_7_site-packages_werkzeug_security'
p274
(dp275
g6
(dp276
g8
S'venv_lib_python2_7_site-packages_werkzeug_security.html'
p277
sg10
S'venv/lib/python2.7/site-packages/werkzeug/security'
p278
sg12
g13
(g14
g15
NtRp279
(dp280
g18
I1
sg19
I0
sg20
I125
sg21
I0
sg22
I0
sg23
I89
sg24
I0
sbssg25
S"\x82\x86\xd5K'*\xad\xb0\x93\xe4\xe7\x96]\x12)\x0b"
p281
ssS'venv_lib_python2_7_site-packages_sqlalchemy_sql_expression'
p282
(dp283
g6
(dp284
g8
S'venv_lib_python2_7_site-packages_sqlalchemy_sql_expression.html'
p285
sg10
S'venv/lib/python2.7/site-packages/sqlalchemy/sql/expression'
p286
sg12
g13
(g14
g15
NtRp287
(dp288
g18
I1
sg19
I0
sg20
I67
sg21
I0
sg22
I0
sg23
I0
sg24
I0
sbssg25
S'\x14\xe7\xc4\xe8@\xe5\t}\xba\xe6,E\xe3\x06\xe0\xad'
p289
ssS'venv_lib_python2_7_site-packages_sqlalchemy_util_deprecations'
p290
(dp291
g6
(dp292
g8
S'venv_lib_python2_7_site-packages_sqlalchemy_util_deprecations.html'
p293
sg10
S'venv/lib/python2.7/site-packages/sqlalchemy/util/deprecations'
p294
sg12
g13
(g14
g15
NtRp295
(dp296
g18
I1
sg19
I0
sg20
I66
sg21
I0
sg22
I0
sg23
I7
sg24
I0
sbssg25
S'\x86\x01\xf5\x08\xaa\x00\xc9\x8cL&\x99\x84W\x1cx\x89'
p297
ssS'venv_lib_python2_7_site-packages_flask_wtf_csrf'
p298
(dp299
g6
(dp300
g8
S'venv_lib_python2_7_site-packages_flask_wtf_csrf.html'
p301
sg10
S'venv/lib/python2.7/site-packages/flask_wtf/csrf'
p302
sg12
g13
(g14
g15
NtRp303
(dp304
g18
I1
sg19
I0
sg20
I131
sg21
I0
sg22
I0
sg23
I110
sg24
I0
sbssg25
S'\x0c3\x98\x80\x14=\xd5T\xe5\xdex\x8c\x93)or'
p305
ssS'venv_lib_python2_7_site-packages_flask_wtf_form'
p306
(dp307
g6
(dp308
g8
S'venv_lib_python2_7_site-packages_flask_wtf_form.html'
p309
sg10
S'venv/lib/python2.7/site-packages/flask_wtf/form'
p310
sg12
g13
(g14
g15
NtRp311
(dp312
g18
I1
sg19
I0
sg20
I82
sg21
I0
sg22
I0
sg23
I39
sg24
I0
sbssg25
S'\x01d\xf2\xab"\x9b\xce\xf57\xf7c\xfc^\xb8!\x81'
p313
ssS'venv_lib_python2_7_site-packages_jinja2_optimizer'
p314
(dp315
g6
(dp316
g8
S'venv_lib_python2_7_site-packages_jinja2_optimizer.html'
p317
sg10
S'venv/lib/python2.7/site-packages/jinja2/optimizer'
p318
sg12
g13
(g14
g15
NtRp319
(dp320
g18
I1
sg19
I0
sg20
I31
sg21
I0
sg22
I0
sg23
I8
sg24
I0
sbssg25
S"v\x90\x17@`\xb3wT\x0e\xa4X'\xf4g\x94."
p321
ssS'venv_lib_python2_7_site-packages_sqlalchemy_orm_strategies'
p322
(dp323
g6
(dp324
g8
S'venv_lib_python2_7_site-packages_sqlalchemy_orm_strategies.html'
p325
sg10
S'venv/lib/python2.7/site-packages/sqlalchemy/orm/strategies'
p326
sg12
g13
(g14
g15
NtRp327
(dp328
g18
I1
sg19
I0
sg20
I629
sg21
I0
sg22
I0
sg23
I444
sg24
I0
sbssg25
S'<\xb9\xab\x1a\xa1\xa9\x10\x8b\x05g\x01Z\x1e\xce\xfe\xc0'
p329
ssS'venv_lib_python2_7_site-packages_sqlalchemy_orm_base'
p330
(dp331
g6
(dp332
g8
S'venv_lib_python2_7_site-packages_sqlalchemy_orm_base.html'
p333
sg10
S'venv/lib/python2.7/site-packages/sqlalchemy/orm/base'
p334
sg12
g13
(g14
g15
NtRp335
(dp336
g18
I1
sg19
I0
sg20
I145
sg21
I0
sg22
I0
sg23
I39
sg24
I0
sbssg25
S'\xeb\xf9\xac?\xd7P\x16\xad\xdd\x08\xa6\x81j\xd0Bo'
p337
ssS'venv_lib_python2_7_site-packages_sqlalchemy_events'
p338
(dp339
g6
(dp340
g8
S'venv_lib_python2_7_site-packages_sqlalchemy_events.html'
p341
sg10
S'venv/lib/python2.7/site-packages/sqlalchemy/events'
p342
sg12
g13
(g14
g15
NtRp343
(dp344
g18
I1
sg19
I0
sg20
I95
sg21
I0
sg22
I0
sg23
I23
sg24
I0
sbssg25
S"\xf9\x14\x0b\r\\\xa4\x04'\xde)\xadk]\xd9(\x1e"
p345
ssS'venv_lib_python2_7_site-packages_jinja2_tests'
p346
(dp347
g6
(dp348
g8
S'venv_lib_python2_7_site-packages_jinja2_tests.html'
p349
sg10
S'venv/lib/python2.7/site-packages/jinja2/tests'
p350
sg12
g13
(g14
g15
NtRp351
(dp352
g18
I1
sg19
I0
sg20
I47
sg21
I0
sg22
I0
sg23
I24
sg24
I0
sbssg25
S'\xb1[}x+R\x19\xd1\xe4\xc4\xf3\xcb"5\xe8\xfd'
p353
ssS'venv_lib_python2_7_site-packages_sqlalchemy_orm___init__'
p354
(dp355
g6
(dp356
g8
S'venv_lib_python2_7_site-packages_sqlalchemy_orm___init__.html'
p357
sg10
S'venv/lib/python2.7/site-packages/sqlalchemy/orm/__init__'
p358
sg12
g13
(g14
g15
NtRp359
(dp360
g18
I1
sg19
I0
sg20
I78
sg21
I0
sg22
I0
sg23
I21
sg24
I0
sbssg25
S'i\xdbY$#\x92E!\x02\xa9a\x98\xa0\x812\xf0'
p361
ssS'venv_lib_python2_7_site-packages_jinja2_visitor'
p362
(dp363
g6
(dp364
g8
S'venv_lib_python2_7_site-packages_jinja2_visitor.html'
p365
sg10
S'venv/lib/python2.7/site-packages/jinja2/visitor'
p366
sg12
g13
(g14
g15
NtRp367
(dp368
g18
I1
sg19
I0
sg20
I40
sg21
I0
sg22
I0
sg23
I8
sg24
I0
sbssg25
S'+&9m\xe7\x0f\xabq\x87\xaf;EL\x84#i'
p369
ssS'venv_lib_python2_7_site-packages_jinja2__compat'
p370
(dp371
g6
(dp372
g8
S'venv_lib_python2_7_site-packages_jinja2__compat.html'
p373
sg10
S'venv/lib/python2.7/site-packages/jinja2/_compat'
p374
sg12
g13
(g14
g15
NtRp375
(dp376
g18
I1
sg19
I0
sg20
I98
sg21
I0
sg22
I0
sg23
I35
sg24
I0
sbssg25
S'@u\t\x99\xbd\xbah\xdc\xa2\x9a\x18b\x12T\x89\x93'
p377
ssS'venv_lib_python2_7_site-packages_sqlalchemy_engine_default'
p378
(dp379
g6
(dp380
g8
S'venv_lib_python2_7_site-packages_sqlalchemy_engine_default.html'
p381
sg10
S'venv/lib/python2.7/site-packages/sqlalchemy/engine/default'
p382
sg12
g13
(g14
g15
NtRp383
(dp384
g18
I1
sg19
I0
sg20
I483
sg21
I0
sg22
I0
sg23
I189
sg24
I0
sbssg25
S'(l}\xd6\x19NO\xe8?\x95vVhX\xfa\xd2'
p385
ssS'venv_lib_python2_7_site-packages_sqlalchemy_orm_descriptor_props'
p386
(dp387
g6
(dp388
g8
S'venv_lib_python2_7_site-packages_sqlalchemy_orm_descriptor_props.html'
p389
sg10
S'venv/lib/python2.7/site-packages/sqlalchemy/orm/descriptor_props'
p390
sg12
g13
(g14
g15
NtRp391
(dp392
g18
I1
sg19
I0
sg20
I242
sg21
I0
sg22
I0
sg23
I191
sg24
I0
sbssg25
S'\xc1(]\xeb\xbb\xdb\xaa8u\x1eF\xcd\t\x95M\xb5'
p393
ssS'venv_lib_python2_7_site-packages_sqlalchemy_dialects___init__'
p394
(dp395
g6
(dp396
g8
S'venv_lib_python2_7_site-packages_sqlalchemy_dialects___init__.html'
p397
sg10
S'venv/lib/python2.7/site-packages/sqlalchemy/dialects/__init__'
p398
sg12
g13
(g14
g15
NtRp399
(dp400
g18
I1
sg19
I0
sg20
I17
sg21
I0
sg22
I0
sg23
I4
sg24
I0
sbssg25
S'S\xc1{\x0e\x99\xe77\x97@\x91d\x1c\tT5\xa5'
p401
ssS'venv_lib_python2_7_site-packages_sqlalchemy_orm_identity'
p402
(dp403
g6
(dp404
g8
S'venv_lib_python2_7_site-packages_sqlalchemy_orm_identity.html'
p405
sg10
S'venv/lib/python2.7/site-packages/sqlalchemy/orm/identity'
p406
sg12
g13
(g14
g15
NtRp407
(dp408
g18
I1
sg19
I0
sg20
I164
sg21
I0
sg22
I0
sg23
I83
sg24
I0
sbssg25
S'\x92g\xd5\xba\x82;\x9aI\x8b\xfb\xe88\xd9\xc1w\xe9'
p409
ssS'venv_lib_python2_7_site-packages_sqlalchemy_ext___init__'
p410
(dp411
g6
(dp412
g8
S'venv_lib_python2_7_site-packages_sqlalchemy_ext___init__.html'
p413
sg10
S'venv/lib/python2.7/site-packages/sqlalchemy/ext/__init__'
p414
sg12
g13
(g14
g15
NtRp415
(dp416
g18
I1
sg19
I0
sg20
I0
sg21
I0
sg22
I0
sg23
I0
sg24
I0
sbssg25
S'/K\x95\xec{\xbd\xc7\x87\xa7\xcdm\x01M6\xcf\x84'
p417
ssS'venv_lib_python2_7_site-packages_jinja2___init__'
p418
(dp419
g6
(dp420
g8
S'venv_lib_python2_7_site-packages_jinja2___init__.html'
p421
sg10
S'venv/lib/python2.7/site-packages/jinja2/__init__'
p422
sg12
g13
(g14
g15
NtRp423
(dp424
g18
I1
sg19
I0
sg20
I11
sg21
I0
sg22
I0
sg23
I0
sg24
I0
sbssg25
S'\\\r\x9b(\x8d\x88\x89\xaaaX\xe8\xfc\x15~=!'
p425
ssS'venv_lib_python2_7_site-packages_wtforms_ext___init__'
p426
(dp427
g6
(dp428
g8
S'venv_lib_python2_7_site-packages_wtforms_ext___init__.html'
p429
sg10
S'venv/lib/python2.7/site-packages/wtforms/ext/__init__'
p430
sg12
g13
(g14
g15
NtRp431
(dp432
g18
I1
sg19
I0
sg20
I0
sg21
I0
sg22
I0
sg23
I0
sg24
I0
sbssg25
S'\xca\xf5\x9f\x7f\x88\xdfa\x831|T\x1d\xbc}\xa5v'
p433
ssS'venv_lib_python2_7_site-packages_flask_wrappers'
p434
(dp435
g6
(dp436
g8
S'venv_lib_python2_7_site-packages_flask_wrappers.html'
p437
sg10
S'venv/lib/python2.7/site-packages/flask/wrappers'
p438
sg12
g13
(g14
g15
NtRp439
(dp440
g18
I1
sg19
I0
sg20
I62
sg21
I0
sg22
I0
sg23
I32
sg24
I0
sbssg25
S'\x95\xe222\xaf\x83v\xb1\x13\x991\x96\xe2\xf4\x05\x17'
p441
ssS'venv_lib_python2_7_site-packages_sqlalchemy_event_legacy'
p442
(dp443
g6
(dp444
g8
S'venv_lib_python2_7_site-packages_sqlalchemy_event_legacy.html'
p445
sg10
S'venv/lib/python2.7/site-packages/sqlalchemy/event/legacy'
p446
sg12
g13
(g14
g15
NtRp447
(dp448
g18
I1
sg19
I0
sg20
I56
sg21
I0
sg22
I0
sg23
I18
sg24
I0
sbssg25
S'2\rzG\xde\x9a\xf4ZR\xb0\x1fLJ\xec\xea\x93'
p449
ssS'venv_lib_python2_7_site-packages_jinja2_bccache'
p450
(dp451
g6
(dp452
g8
S'venv_lib_python2_7_site-packages_jinja2_bccache.html'
p453
sg10
S'venv/lib/python2.7/site-packages/jinja2/bccache'
p454
sg12
g13
(g14
g15
NtRp455
(dp456
g18
I1
sg19
I0
sg20
I147
sg21
I0
sg22
I0
sg23
I104
sg24
I0
sbssg25
S'r\xee\xabK\x8f\x01\xb0\xfa\xa2rl\xe3)n]\xc4'
p457
ssS'venv_lib_python2_7_site-packages_flask_module'
p458
(dp459
g6
(dp460
g8
S'venv_lib_python2_7_site-packages_flask_module.html'
p461
sg10
S'venv/lib/python2.7/site-packages/flask/module'
p462
sg12
g13
(g14
g15
NtRp463
(dp464
g18
I1
sg19
I0
sg20
I13
sg21
I0
sg22
I0
sg23
I7
sg24
I0
sbssg25
S'\xf0\xdb\x0fZ4%l\x89\x9c]\xb9\xf7v\xe7@;'
p465
ssS'venv_lib_python2_7_site-packages_sqlalchemy_sql_annotation'
p466
(dp467
g6
(dp468
g8
S'venv_lib_python2_7_site-packages_sqlalchemy_sql_annotation.html'
p469
sg10
S'venv/lib/python2.7/site-packages/sqlalchemy/sql/annotation'
p470
sg12
g13
(g14
g15
NtRp471
(dp472
g18
I1
sg19
I0
sg20
I97
sg21
I0
sg22
I0
sg23
I25
sg24
I0
sbssg25
S'i\xe1\xd1+\xe1\xac(-\x85\xa3\x1d\x0c7\x90\x9c\xeb'
p473
ssS'venv_lib_python2_7_site-packages_sqlalchemy_orm_evaluator'
p474
(dp475
g6
(dp476
g8
S'venv_lib_python2_7_site-packages_sqlalchemy_orm_evaluator.html'
p477
sg10
S'venv/lib/python2.7/site-packages/sqlalchemy/orm/evaluator'
p478
sg12
g13
(g14
g15
NtRp479
(dp480
g18
I1
sg19
I0
sg20
I87
sg21
I0
sg22
I0
sg23
I49
sg24
I0
sbssg25
S"\xef\xfc\x80h\xbb'\xa1\x7f\x93\t\x86\xd8\x02\x0f\xd4\xdc"
p481
ssS'venv_lib_python2_7_site-packages_sqlalchemy_orm_query'
p482
(dp483
g6
(dp484
g8
S'venv_lib_python2_7_site-packages_sqlalchemy_orm_query.html'
p485
sg10
S'venv/lib/python2.7/site-packages/sqlalchemy/orm/query'
p486
sg12
g13
(g14
g15
NtRp487
(dp488
g18
I1
sg19
I0
sg20
I1090
sg21
I0
sg22
I0
sg23
I650
sg24
I0
sbssg25
S' q\x0b\xb9\xe3\x8f\xdc9H\x82\x8f\xe6\x12\x05\x1ce'
p489
ssS'venv_lib_python2_7_site-packages_sqlalchemy_event___init__'
p490
(dp491
g6
(dp492
g8
S'venv_lib_python2_7_site-packages_sqlalchemy_event___init__.html'
p493
sg10
S'venv/lib/python2.7/site-packages/sqlalchemy/event/__init__'
p494
sg12
g13
(g14
g15
NtRp495
(dp496
g18
I1
sg19
I0
sg20
I4
sg21
I0
sg22
I0
sg23
I0
sg24
I0
sbssg25
S'td]\xc4W\xe5\xd0\xd4\xdbx\xef\x16\x89W\xe2B'
p497
ssS'venv_lib_python2_7_site-packages_flask_sessions'
p498
(dp499
g6
(dp500
g8
S'venv_lib_python2_7_site-packages_flask_sessions.html'
p501
sg10
S'venv/lib/python2.7/site-packages/flask/sessions'
p502
sg12
g13
(g14
g15
NtRp503
(dp504
g18
I1
sg19
I0
sg20
I143
sg21
I0
sg22
I0
sg23
I29
sg24
I0
sbssg25
S'+\xab\xe2\xfd\xe1,\x9b\x81N\x99\xcb/c\xf9Sk'
p505
ssS'venv_lib_python2_7_site-packages_sqlalchemy_orm_interfaces'
p506
(dp507
g6
(dp508
g8
S'venv_lib_python2_7_site-packages_sqlalchemy_orm_interfaces.html'
p509
sg10
S'venv/lib/python2.7/site-packages/sqlalchemy/orm/interfaces'
p510
sg12
g13
(g14
g15
NtRp511
(dp512
g18
I1
sg19
I0
sg20
I149
sg21
I0
sg22
I0
sg23
I33
sg24
I0
sbssg25
S'C\xf9\x85\xb0=\x85E\xec\x9d\x8f\xfei\xdb!\xbe|'
p513
ssS'venv_lib_python2_7_site-packages_werkzeug_datastructures'
p514
(dp515
g6
(dp516
g8
S'venv_lib_python2_7_site-packages_werkzeug_datastructures.html'
p517
sg10
S'venv/lib/python2.7/site-packages/werkzeug/datastructures'
p518
sg12
g13
(g14
g15
NtRp519
(dp520
g18
I1
sg19
I0
sg20
I1284
sg21
I0
sg22
I0
sg23
I764
sg24
I0
sbssg25
S'\xb6L\x90\x93S\xe6A@fs\x8c\xf4\xdb\xd8`A'
p521
ssS'venv_lib_python2_7_site-packages_werkzeug_utils'
p522
(dp523
g6
(dp524
g8
S'venv_lib_python2_7_site-packages_werkzeug_utils.html'
p525
sg10
S'venv/lib/python2.7/site-packages/werkzeug/utils'
p526
sg12
g13
(g14
g15
NtRp527
(dp528
g18
I1
sg19
I0
sg20
I242
sg21
I0
sg22
I0
sg23
I151
sg24
I0
sbssg25
S'\xf6WS\xd8\xdcN\x89\xb4\xd0k\xf5\xff\x1aQ\xa8{'
p529
ssS'venv_lib_python2_7_site-packages_sqlalchemy_orm_session'
p530
(dp531
g6
(dp532
g8
S'venv_lib_python2_7_site-packages_sqlalchemy_orm_session.html'
p533
sg10
S'venv/lib/python2.7/site-packages/sqlalchemy/orm/session'
p534
sg12
g13
(g14
g15
NtRp535
(dp536
g18
I1
sg19
I0
sg20
I782
sg21
I0
sg22
I0
sg23
I374
sg24
I0
sbssg25
S'\x02\x0eo\x86w[R\xf54\xb0\x08\xc8\x00\xde\x8a&'
p537
ssS'venv_lib_python2_7_site-packages_jinja2_parser'
p538
(dp539
g6
(dp540
g8
S'venv_lib_python2_7_site-packages_jinja2_parser.html'
p541
sg10
S'venv/lib/python2.7/site-packages/jinja2/parser'
p542
sg12
g13
(g14
g15
NtRp543
(dp544
g18
I1
sg19
I0
sg20
I646
sg21
I0
sg22
I0
sg23
I331
sg24
I0
sbssg25
S'\xae]|\x99\xcd\x88\x93\x01 o\x03B\xf2\x8a\x17U'
p545
ssS'venv_lib_python2_7_site-packages_sqlalchemy_ext_declarative___init__'
p546
(dp547
g6
(dp548
g8
S'venv_lib_python2_7_site-packages_sqlalchemy_ext_declarative___init__.html'
p549
sg10
S'venv/lib/python2.7/site-packages/sqlalchemy/ext/declarative/__init__'
p550
sg12
g13
(g14
g15
NtRp551
(dp552
g18
I1
sg19
I0
sg20
I2
sg21
I0
sg22
I0
sg23
I0
sg24
I0
sbssg25
S'L\x1dtT\x87a{\xfc\xb9\x89\n,C\x1f\x9b\xb6'
p553
ssS'venv_lib_python2_7_site-packages_sqlalchemy_engine_util'
p554
(dp555
g6
(dp556
g8
S'venv_lib_python2_7_site-packages_sqlalchemy_engine_util.html'
p557
sg10
S'venv/lib/python2.7/site-packages/sqlalchemy/engine/util'
p558
sg12
g13
(g14
g15
NtRp559
(dp560
g18
I1
sg19
I0
sg20
I33
sg21
I0
sg22
I0
sg23
I28
sg24
I0
sbssg25
S'\x16=\xe0\xb9}@H+\x97\x0f_\xd6\x00\x1c\xaey'
p561
ssS'venv_lib_python2_7_site-packages_werkzeug_http'
p562
(dp563
g6
(dp564
g8
S'venv_lib_python2_7_site-packages_werkzeug_http.html'
p565
sg10
S'venv/lib/python2.7/site-packages/werkzeug/http'
p566
sg12
g13
(g14
g15
NtRp567
(dp568
g18
I1
sg19
I0
sg20
I373
sg21
I4
sg22
I0
sg23
I260
sg24
I0
sbssg25
S'J\xe1\x8f|\xcbb\xcfv\x89\x11I`\xfe\xbc\xdf\xdc'
p569
ssS'venv_lib_python2_7_site-packages_sqlalchemy_engine___init__'
p570
(dp571
g6
(dp572
g8
S'venv_lib_python2_7_site-packages_sqlalchemy_engine___init__.html'
p573
sg10
S'venv/lib/python2.7/site-packages/sqlalchemy/engine/__init__'
p574
sg12
g13
(g14
g15
NtRp575
(dp576
g18
I1
sg19
I0
sg20
I19
sg21
I0
sg22
I0
sg23
I5
sg24
I0
sbssg25
S'1\xd75\xe3!\x1cF\xf5\x86\x12\xdc:\xd1\xe2\x8d\xbc'
p577
ssS'venv_lib_python2_7_site-packages_sqlalchemy_sql_sqltypes'
p578
(dp579
g6
(dp580
g8
S'venv_lib_python2_7_site-packages_sqlalchemy_sql_sqltypes.html'
p581
sg10
S'venv/lib/python2.7/site-packages/sqlalchemy/sql/sqltypes'
p582
sg12
g13
(g14
g15
NtRp583
(dp584
g18
I1
sg19
I0
sg20
I526
sg21
I0
sg22
I0
sg23
I284
sg24
I0
sbssg25
S'\x97>\xc4\xc3\xee\xa8<vP\x9d\x88\xcf\xfe\xe3//'
p585
ssS'venv_lib_python2_7_site-packages_flask_testing'
p586
(dp587
g6
(dp588
g8
S'venv_lib_python2_7_site-packages_flask_testing.html'
p589
sg10
S'venv/lib/python2.7/site-packages/flask/testing'
p590
sg12
g13
(g14
g15
NtRp591
(dp592
g18
I1
sg19
I0
sg20
I58
sg21
I0
sg22
I0
sg23
I31
sg24
I0
sbssg25
S'\xd9\xf3_\xa9\x18t\xef\xa2\xc5q@\xd3\xfe@\xd4c'
p593
ssS'venv_lib_python2_7_site-packages_sqlalchemy_orm_util'
p594
(dp595
g6
(dp596
g8
S'venv_lib_python2_7_site-packages_sqlalchemy_orm_util.html'
p597
sg10
S'venv/lib/python2.7/site-packages/sqlalchemy/orm/util'
p598
sg12
g13
(g14
g15
NtRp599
(dp600
g18
I1
sg19
I0
sg20
I281
sg21
I0
sg22
I0
sg23
I212
sg24
I0
sbssg25
S'(\xe4T\x88+\xae\xc9&F\xb6\xf6\xed(`\xea\xf0'
p601
ssS'venv_lib_python2_7_site-packages_itsdangerous'
p602
(dp603
g6
(dp604
g8
S'venv_lib_python2_7_site-packages_itsdangerous.html'
p605
sg10
S'venv/lib/python2.7/site-packages/itsdangerous'
p606
sg12
g13
(g14
g15
NtRp607
(dp608
g18
I1
sg19
I0
sg20
I413
sg21
I0
sg22
I0
sg23
I167
sg24
I0
sbssg25
S'\x91 \x8f\xfd\xb3\xa1\xfc5J1\x0c\xcb%\xdb+K'
p609
ssS'venv_lib_python2_7_site-packages_sqlalchemy_orm_attributes'
p610
(dp611
g6
(dp612
g8
S'venv_lib_python2_7_site-packages_sqlalchemy_orm_attributes.html'
p613
sg10
S'venv/lib/python2.7/site-packages/sqlalchemy/orm/attributes'
p614
sg12
g13
(g14
g15
NtRp615
(dp616
g18
I1
sg19
I0
sg20
I622
sg21
I0
sg22
I0
sg23
I365
sg24
I0
sbssg25
S'\x95\xf7|\xa9z\x8d\xcc4o\xc7\xee\xcfxu\x90\xd6'
p617
ssS'venv_lib_python2_7_site-packages_wtforms_fields_core'
p618
(dp619
g6
(dp620
g8
S'venv_lib_python2_7_site-packages_wtforms_fields_core.html'
p621
sg10
S'venv/lib/python2.7/site-packages/wtforms/fields/core'
p622
sg12
g13
(g14
g15
NtRp623
(dp624
g18
I1
sg19
I0
sg20
I512
sg21
I0
sg22
I0
sg23
I258
sg24
I0
sbssg25
S'\x1aF\xbb(\xe4\xbf.u\xcb\xb5\xe2{\xddW\xd8\xfe'
p625
ssS'venv_lib_python2_7_site-packages_sqlalchemy_orm_dynamic'
p626
(dp627
g6
(dp628
g8
S'venv_lib_python2_7_site-packages_sqlalchemy_orm_dynamic.html'
p629
sg10
S'venv/lib/python2.7/site-packages/sqlalchemy/orm/dynamic'
p630
sg12
g13
(g14
g15
NtRp631
(dp632
g18
I1
sg19
I0
sg20
I198
sg21
I0
sg22
I0
sg23
I144
sg24
I0
sbssg25
S'\xbeW {\xf6?6\xf6\xbd\x14(\x1a\x88>\xee\xf1'
p633
ssS'venv_lib_python2_7_site-packages_wtforms_fields___init__'
p634
(dp635
g6
(dp636
g8
S'venv_lib_python2_7_site-packages_wtforms_fields___init__.html'
p637
sg10
S'venv/lib/python2.7/site-packages/wtforms/fields/__init__'
p638
sg12
g13
(g14
g15
NtRp639
(dp640
g18
I1
sg19
I0
sg20
I4
sg21
I0
sg22
I0
sg23
I0
sg24
I0
sbssg25
S'u\x14c\x0b!\xb8\x16\xe0\x14\xe1\xb1h\xa5\x0c%$'
p641
ssS'venv_lib_python2_7_site-packages_flask___init__'
p642
(dp643
g6
(dp644
g8
S'venv_lib_python2_7_site-packages_flask___init__.html'
p645
sg10
S'venv/lib/python2.7/site-packages/flask/__init__'
p646
sg12
g13
(g14
g15
NtRp647
(dp648
g18
I1
sg19
I0
sg20
I18
sg21
I0
sg22
I0
sg23
I0
sg24
I0
sbssg25
S'\xbap\xbb\x0bT{\x1b\xee\xb3R\xfde\x14\xac>O'
p649
ssS'venv_lib_python2_7_site-packages_wtforms_ext_csrf_form'
p650
(dp651
g6
(dp652
g8
S'venv_lib_python2_7_site-packages_wtforms_ext_csrf_form.html'
p653
sg10
S'venv/lib/python2.7/site-packages/wtforms/ext/csrf/form'
p654
sg12
g13
(g14
g15
NtRp655
(dp656
g18
I1
sg19
I0
sg20
I18
sg21
I0
sg22
I0
sg23
I6
sg24
I0
sbssg25
S'\xe0\xfeN\x99\xa1\xf7\x9f\x17\xdf\xa1\x92\\\xd6\x0f/\xb3'
p657
ssS'venv_lib_python2_7_site-packages_sqlalchemy_ext_declarative_clsregistry'
p658
(dp659
g6
(dp660
g8
S'venv_lib_python2_7_site-packages_sqlalchemy_ext_declarative_clsregistry.html'
p661
sg10
S'venv/lib/python2.7/site-packages/sqlalchemy/ext/declarative/clsregistry'
p662
sg12
g13
(g14
g15
NtRp663
(dp664
g18
I1
sg19
I0
sg20
I179
sg21
I0
sg22
I0
sg23
I76
sg24
I0
sbssg25
S'v\xae\xb7\xb7\x0f\x08\xe4\xceo\no\x11\x03\xda\x99@'
p665
ssS'venv_lib_python2_7_site-packages_markupsafe___init__'
p666
(dp667
g6
(dp668
g8
S'venv_lib_python2_7_site-packages_markupsafe___init__.html'
p669
sg10
S'venv/lib/python2.7/site-packages/markupsafe/__init__'
p670
sg12
g13
(g14
g15
NtRp671
(dp672
g18
I1
sg19
I0
sg20
I155
sg21
I0
sg22
I0
sg23
I85
sg24
I0
sbssg25
S'\xea:\x15\xe9\xe7H\x96\xef\xf0\x1aI\xc6\x93k\xf7\xa5'
p673
ssS'venv_lib_python2_7_site-packages_wtforms_utils'
p674
(dp675
g6
(dp676
g8
S'venv_lib_python2_7_site-packages_wtforms_utils.html'
p677
sg10
S'venv/lib/python2.7/site-packages/wtforms/utils'
p678
sg12
g13
(g14
g15
NtRp679
(dp680
g18
I1
sg19
I0
sg20
I21
sg21
I0
sg22
I0
sg23
I9
sg24
I0
sbssg25
S'\xa2j\xfft\n\xdaza5\xaaf\xb3\x9d\xb2\x1a\xe2'
p681
ssS'venv_lib_python2_7_site-packages_sqlalchemy_ext_declarative_base'
p682
(dp683
g6
(dp684
g8
S'venv_lib_python2_7_site-packages_sqlalchemy_ext_declarative_base.html'
p685
sg10
S'venv/lib/python2.7/site-packages/sqlalchemy/ext/declarative/base'
p686
sg12
g13
(g14
g15
NtRp687
(dp688
g18
I1
sg19
I0
sg20
I278
sg21
I0
sg22
I0
sg23
I129
sg24
I0
sbssg25
S'{[\x0f\x92~\xc5\xe1U\xf3\xa9O\xda\x80\x94\xb4}'
p689
ssS'venv_lib_python2_7_site-packages_sqlalchemy_orm_properties'
p690
(dp691
g6
(dp692
g8
S'venv_lib_python2_7_site-packages_sqlalchemy_orm_properties.html'
p693
sg10
S'venv/lib/python2.7/site-packages/sqlalchemy/orm/properties'
p694
sg12
g13
(g14
g15
NtRp695
(dp696
g18
I1
sg19
I0
sg20
I81
sg21
I0
sg22
I0
sg23
I30
sg24
I0
sbssg25
S'\xf5T\xcdn\xb6\xc2\xcb\xdaH\x03~\x10\tW\xf60'
p697
ssS'venv_lib_python2_7_site-packages_flask_helpers'
p698
(dp699
g6
(dp700
g8
S'venv_lib_python2_7_site-packages_flask_helpers.html'
p701
sg10
S'venv/lib/python2.7/site-packages/flask/helpers'
p702
sg12
g13
(g14
g15
NtRp703
(dp704
g18
I1
sg19
I0
sg20
I277
sg21
I0
sg22
I0
sg23
I153
sg24
I0
sbssg25
S'\xd8\x19?r|v\xc7\xd8\x15\x9a-\xce_\xc5\xc7\x07'
p705
ssS'venv_lib_python2_7_site-packages_sqlalchemy_util___init__'
p706
(dp707
g6
(dp708
g8
S'venv_lib_python2_7_site-packages_sqlalchemy_util___init__.html'
p709
sg10
S'venv/lib/python2.7/site-packages/sqlalchemy/util/__init__'
p710
sg12
g13
(g14
g15
NtRp711
(dp712
g18
I1
sg19
I0
sg20
I8
sg21
I0
sg22
I0
sg23
I0
sg24
I0
sbssg25
S'\x80\xfa[c\x83e\xc4PG\x9a-\x03\xf5&\x82\x07'
p713
ssS'venv_lib_python2_7_site-packages_sqlalchemy_sql_visitors'
p714
(dp715
g6
(dp716
g8
S'venv_lib_python2_7_site-packages_sqlalchemy_sql_visitors.html'
p717
sg10
S'venv/lib/python2.7/site-packages/sqlalchemy/sql/visitors'
p718
sg12
g13
(g14
g15
NtRp719
(dp720
g18
I1
sg19
I0
sg20
I132
sg21
I0
sg22
I0
sg23
I34
sg24
I0
sbssg25
S"'%\xab\xf2\xb2\x06x\n\xb4\xf7\x86=\tC\xa6J"
p721
ssS'venv_lib_python2_7_site-packages_wtforms_validators'
p722
(dp723
g6
(dp724
g8
S'venv_lib_python2_7_site-packages_wtforms_validators.html'
p725
sg10
S'venv/lib/python2.7/site-packages/wtforms/validators'
p726
sg12
g13
(g14
g15
NtRp727
(dp728
g18
I1
sg19
I0
sg20
I261
sg21
I0
sg22
I0
sg23
I137
sg24
I0
sbssg25
S'{\x95\x1f^\xd7\xe8J6\xfb\x95z#\xea5ez'
p729
ssS'venv_lib_python2_7_site-packages_flask_wtf___init__'
p730
(dp731
g6
(dp732
g8
S'venv_lib_python2_7_site-packages_flask_wtf___init__.html'
p733
sg10
S'venv/lib/python2.7/site-packages/flask_wtf/__init__'
p734
sg12
g13
(g14
g15
NtRp735
(dp736
g18
I1
sg19
I0
sg20
I6
sg21
I0
sg22
I0
sg23
I0
sg24
I0
sbssg25
S'"?\x83:\xd1i\xc6\x81\x92_\x00\xd2\xb6[\x00\xec'
p737
ssS'venv_lib_python2_7_site-packages_sqlalchemy_log'
p738
(dp739
g6
(dp740
g8
S'venv_lib_python2_7_site-packages_sqlalchemy_log.html'
p741
sg10
S'venv/lib/python2.7/site-packages/sqlalchemy/log'
p742
sg12
g13
(g14
g15
NtRp743
(dp744
g18
I1
sg19
I0
sg20
I79
sg21
I0
sg22
I0
sg23
I33
sg24
I0
sbssg25
S'a\xd0\xeb\xd8\xfb\xc3\xc3p\xe6#n\x1b\xa4\x87\x9f\xaa'
p745
ssS'venv_lib_python2_7_site-packages_werkzeug_wsgi'
p746
(dp747
g6
(dp748
g8
S'venv_lib_python2_7_site-packages_werkzeug_wsgi.html'
p749
sg10
S'venv/lib/python2.7/site-packages/werkzeug/wsgi'
p750
sg12
g13
(g14
g15
NtRp751
(dp752
g18
I1
sg19
I0
sg20
I448
sg21
I0
sg22
I0
sg23
I293
sg24
I0
sbssg25
S"*\x03\x8cb\xe0\x95\xfa\xe3?=\xd8\xd1L=O'"
p753
ssS'venv_lib_python2_7_site-packages_sqlalchemy_processors'
p754
(dp755
g6
(dp756
g8
S'venv_lib_python2_7_site-packages_sqlalchemy_processors.html'
p757
sg10
S'venv/lib/python2.7/site-packages/sqlalchemy/processors'
p758
sg12
g13
(g14
g15
NtRp759
(dp760
g18
I1
sg19
I0
sg20
I83
sg21
I0
sg22
I0
sg23
I68
sg24
I0
sbssg25
S'\x0b\xf80)\xae\xe9E\xe0\x8b\xd9M\x9d?O\x14\xf4'
p761
ssS'venv_lib_python2_7_site-packages_wtforms_compat'
p762
(dp763
g6
(dp764
g8
S'venv_lib_python2_7_site-packages_wtforms_compat.html'
p765
sg10
S'venv/lib/python2.7/site-packages/wtforms/compat'
p766
sg12
g13
(g14
g15
NtRp767
(dp768
g18
I1
sg19
I0
sg20
I14
sg21
I0
sg22
I0
sg23
I5
sg24
I0
sbssg25
S'\x05\x8c\xaf\xd6B8\x98T\xa3\xa9%\x86\x91\xd1U@'
p769
ssS'views'
p770
(dp771
g6
(dp772
g8
S'views.html'
p773
sg10
g770
sg12
g13
(g14
g15
NtRp774
(dp775
g18
I1
sg19
I0
sg20
I88
sg21
I0
sg22
I0
sg23
I4
sg24
I0
sbssg25
S'\x90\x8d\x12\x13\xec\xcdV^\x80\x07F\x15\x9b\xb7I&'
p776
ssS'venv_lib_python2_7_site-packages_sqlalchemy_interfaces'
p777
(dp778
g6
(dp779
g8
S'venv_lib_python2_7_site-packages_sqlalchemy_interfaces.html'
p780
sg10
S'venv/lib/python2.7/site-packages/sqlalchemy/interfaces'
p781
sg12
g13
(g14
g15
NtRp782
(dp783
g18
I1
sg19
I0
sg20
I69
sg21
I0
sg22
I0
sg23
I47
sg24
I0
sbssg25
S'\x07-a\xa6\xd7\xaf,(W:Z\x8f\x90\xb3t\x03'
p784
ssS'venv_lib_python2_7_site-packages_sqlalchemy_orm_relationships'
p785
(dp786
g6
(dp787
g8
S'venv_lib_python2_7_site-packages_sqlalchemy_orm_relationships.html'
p788
sg10
S'venv/lib/python2.7/site-packages/sqlalchemy/orm/relationships'
p789
sg12
g13
(g14
g15
NtRp790
(dp791
g18
I1
sg19
I0
sg20
I785
sg21
I0
sg22
I0
sg23
I374
sg24
I0
sbssg25
S'T\x84z\xff\xdd\xce\xb9\xc6\xca\xf9 z\x98\x87\x97\xc6'
p792
ssS'venv_lib_python2_7_site-packages_jinja2_lexer'
p793
(dp794
g6
(dp795
g8
S'venv_lib_python2_7_site-packages_jinja2_lexer.html'
p796
sg10
S'venv/lib/python2.7/site-packages/jinja2/lexer'
p797
sg12
g13
(g14
g15
NtRp798
(dp799
g18
I1
sg19
I0
sg20
I346
sg21
I0
sg22
I0
sg23
I80
sg24
I0
sbssg25
S'\x81\xe4\xbf\x163\x1c\xa6\xfb\xe60\xd9[\xdb\xa2\x13\n'
p800
ssS'venv_lib_python2_7_site-packages_werkzeug_wrappers'
p801
(dp802
g6
(dp803
g8
S'venv_lib_python2_7_site-packages_werkzeug_wrappers.html'
p804
sg10
S'venv/lib/python2.7/site-packages/werkzeug/wrappers'
p805
sg12
g13
(g14
g15
NtRp806
(dp807
g18
I1
sg19
I0
sg20
I568
sg21
I0
sg22
I0
sg23
I236
sg24
I0
sbssg25
S'\x91`\xb9@\xbeV\xaeb\xa9\x9c\t\xc3\xd93.\x7f'
p808
ssS'venv_lib_python2_7_site-packages_werkzeug_urls'
p809
(dp810
g6
(dp811
g8
S'venv_lib_python2_7_site-packages_werkzeug_urls.html'
p812
sg10
S'venv/lib/python2.7/site-packages/werkzeug/urls'
p813
sg12
g13
(g14
g15
NtRp814
(dp815
g18
I1
sg19
I0
sg20
I412
sg21
I0
sg22
I0
sg23
I154
sg24
I0
sbssg25
S'w3\x18\x9eb\xae\xd0\xcb*\x85\xb3U^da\x19'
p816
ssS'venv_lib_python2_7_site-packages_sqlalchemy_sql_ddl'
p817
(dp818
g6
(dp819
g8
S'venv_lib_python2_7_site-packages_sqlalchemy_sql_ddl.html'
p820
sg10
S'venv/lib/python2.7/site-packages/sqlalchemy/sql/ddl'
p821
sg12
g13
(g14
g15
NtRp822
(dp823
g18
I1
sg19
I0
sg20
I245
sg21
I0
sg22
I0
sg23
I79
sg24
I0
sbssg25
S'yPn\x06\x84\x14\xd0*.\x96\xf9%#\xfaa('
p824
ssS'venv_lib_python2_7_site-packages_sqlalchemy_orm_instrumentation'
p825
(dp826
g6
(dp827
g8
S'venv_lib_python2_7_site-packages_sqlalchemy_orm_instrumentation.html'
p828
sg10
S'venv/lib/python2.7/site-packages/sqlalchemy/orm/instrumentation'
p829
sg12
g13
(g14
g15
NtRp830
(dp831
g18
I1
sg19
I0
sg20
I239
sg21
I0
sg22
I0
sg23
I98
sg24
I0
sbssg25
S'\x11O\xd1\x80\xe8\xc8\x04\xb5\xe4I\x07\x891\xdcc\xd0'
p832
ssS'venv_lib_python2_7_site-packages_sqlalchemy_sql_operators'
p833
(dp834
g6
(dp835
g8
S'venv_lib_python2_7_site-packages_sqlalchemy_sql_operators.html'
p836
sg10
S'venv/lib/python2.7/site-packages/sqlalchemy/sql/operators'
p837
sg12
g13
(g14
g15
NtRp838
(dp839
g18
I1
sg19
I0
sg20
I199
sg21
I0
sg22
I0
sg23
I88
sg24
I0
sbssg25
S'-X\xfe8\x92h\x03i\x893\xfe\xcf\xb2\xea\x85\xea'
p840
ssS'venv_lib_python2_7_site-packages_sqlalchemy_sql_naming'
p841
(dp842
g6
(dp843
g8
S'venv_lib_python2_7_site-packages_sqlalchemy_sql_naming.html'
p844
sg10
S'venv/lib/python2.7/site-packages/sqlalchemy/sql/naming'
p845
sg12
g13
(g14
g15
NtRp846
(dp847
g18
I1
sg19
I0
sg20
I84
sg21
I0
sg22
I0
sg23
I49
sg24
I0
sbssg25
S'XD\xe5\xd9m\\\xffk\xd78|/E5\xbf\x11'
p848
ssS'venv_lib_python2_7_site-packages_sqlalchemy_orm_loading'
p849
(dp850
g6
(dp851
g8
S'venv_lib_python2_7_site-packages_sqlalchemy_orm_loading.html'
p852
sg10
S'venv/lib/python2.7/site-packages/sqlalchemy/orm/loading'
p853
sg12
g13
(g14
g15
NtRp854
(dp855
g18
I1
sg19
I0
sg20
I312
sg21
I0
sg22
I0
sg23
I149
sg24
I0
sbssg25
S'{\x08\x1b\x10\xf3\xe9C\xe1;\xf35\x058\x06?h'
p856
ssS'venv_lib_python2_7_site-packages_sqlalchemy_pool'
p857
(dp858
g6
(dp859
g8
S'venv_lib_python2_7_site-packages_sqlalchemy_pool.html'
p860
sg10
S'venv/lib/python2.7/site-packages/sqlalchemy/pool'
p861
sg12
g13
(g14
g15
NtRp862
(dp863
g18
I1
sg19
I0
sg20
I507
sg21
I0
sg22
I0
sg23
I292
sg24
I0
sbssg25
S'\xa6\rC\xad\x0e\xbc\x87\xe0\xc9\xb9\x07\xc2\xac9\xaev'
p864
ssS'venv_lib_python2_7_site-packages_sqlalchemy_sql_selectable'
p865
(dp866
g6
(dp867
g8
S'venv_lib_python2_7_site-packages_sqlalchemy_sql_selectable.html'
p868
sg10
S'venv/lib/python2.7/site-packages/sqlalchemy/sql/selectable'
p869
sg12
g13
(g14
g15
NtRp870
(dp871
g18
I1
sg19
I0
sg20
I886
sg21
I0
sg22
I0
sg23
I497
sg24
I0
sbssg25
S'\x98\x00`N\xd7\x11\xf9\xc36\x0c\xf8y[\xc3\xbfe'
p872
ssS'venv_lib_python2_7_site-packages_sqlalchemy_util_compat'
p873
(dp874
g6
(dp875
g8
S'venv_lib_python2_7_site-packages_sqlalchemy_util_compat.html'
p876
sg10
S'venv/lib/python2.7/site-packages/sqlalchemy/util/compat'
p877
sg12
g13
(g14
g15
NtRp878
(dp879
g18
I1
sg19
I0
sg20
I173
sg21
I0
sg22
I0
sg23
I95
sg24
I0
sbssg25
S'j\x02\xdc\xa5\xa3\x80\xcde\xbb/\xfa5\xc8\x8c\x15\xf3'
p880
ssS'venv_lib_python2_7_site-packages_werkzeug_test'
p881
(dp882
g6
(dp883
g8
S'venv_lib_python2_7_site-packages_werkzeug_test.html'
p884
sg10
S'venv/lib/python2.7/site-packages/werkzeug/test'
p885
sg12
g13
(g14
g15
NtRp886
(dp887
g18
I1
sg19
I0
sg20
I465
sg21
I0
sg22
I0
sg23
I180
sg24
I0
sbssg25
S'g\xde=\x07\xed"Z\xc2\x94\xc6\r\xe5\x80\xe2n\xef'
p888
ssS'venv_lib_python2_7_site-packages_sqlalchemy___init__'
p889
(dp890
g6
(dp891
g8
S'venv_lib_python2_7_site-packages_sqlalchemy___init__.html'
p892
sg10
S'venv/lib/python2.7/site-packages/sqlalchemy/__init__'
p893
sg12
g13
(g14
g15
NtRp894
(dp895
g18
I1
sg19
I0
sg20
I13
sg21
I0
sg22
I0
sg23
I0
sg24
I0
sbssg25
S'{\xb8\xe6\x7f\xdcC\x9c\xbb\xf1\x14O$\xeeG\x86\xea'
p896
ssS'venv_lib_python2_7_site-packages_werkzeug_exceptions'
p897
(dp898
g6
(dp899
g8
S'venv_lib_python2_7_site-packages_werkzeug_exceptions.html'
p900
sg10
S'venv/lib/python2.7/site-packages/werkzeug/exceptions'
p901
sg12
g13
(g14
g15
NtRp902
(dp903
g18
I1
sg19
I0
sg20
I172
sg21
I0
sg22
I0
sg23
I16
sg24
I0
sbssg25
S'\xee\xd6\xcb\x03\xc6\x00\xcd\xea\xf3t\x18\x817"\x8c\xab'
p904
ssS'venv_lib_python2_7_site-packages_sqlalchemy_util__collections'
p905
(dp906
g6
(dp907
g8
S'venv_lib_python2_7_site-packages_sqlalchemy_util__collections.html'
p908
sg10
S'venv/lib/python2.7/site-packages/sqlalchemy/util/_collections'
p909
sg12
g13
(g14
g15
NtRp910
(dp911
g18
I1
sg19
I0
sg20
I550
sg21
I0
sg22
I0
sg23
I257
sg24
I0
sbssg25
S".T\xa4\x86$\xe9k(Dw\x8c\x05\x81\xe1\xcd'"
p912
ssS'venv_lib_python2_7_site-packages_sqlalchemy_inspection'
p913
(dp914
g6
(dp915
g8
S'venv_lib_python2_7_site-packages_sqlalchemy_inspection.html'
p916
sg10
S'venv/lib/python2.7/site-packages/sqlalchemy/inspection'
p917
sg12
g13
(g14
g15
NtRp918
(dp919
g18
I1
sg19
I0
sg20
I28
sg21
I0
sg22
I0
sg23
I2
sg24
I0
sbssg25
S'\x91\x8af\x16\xe9\x1e\xd6$x(`\xffSB*1'
p920
ssS'venv_lib_python2_7_site-packages_flask_json'
p921
(dp922
g6
(dp923
g8
S'venv_lib_python2_7_site-packages_flask_json.html'
p924
sg10
S'venv/lib/python2.7/site-packages/flask/json'
p925
sg12
g13
(g14
g15
NtRp926
(dp927
g18
I1
sg19
I0
sg20
I83
sg21
I0
sg22
I0
sg23
I39
sg24
I0
sbssg25
S'\x03\xdd{q\xb1Zz\xb5\xe9YE-u\xc6\x9d\xbb'
p928
ssS'venv_lib_python2_7_site-packages_sqlalchemy_orm_exc'
p929
(dp930
g6
(dp931
g8
S'venv_lib_python2_7_site-packages_sqlalchemy_orm_exc.html'
p932
sg10
S'venv/lib/python2.7/site-packages/sqlalchemy/orm/exc'
p933
sg12
g13
(g14
g15
NtRp934
(dp935
g18
I1
sg19
I0
sg20
I60
sg21
I0
sg22
I0
sg23
I35
sg24
I0
sbssg25
S'\xe4\xa0\x80\x1dx\xc3k>\x83\xa1h\x19<\x12\xbd\x83'
p936
ssS'venv_lib_python2_7_site-packages_sqlalchemy_sql_elements'
p937
(dp938
g6
(dp939
g8
S'venv_lib_python2_7_site-packages_sqlalchemy_sql_elements.html'
p940
sg10
S'venv/lib/python2.7/site-packages/sqlalchemy/sql/elements'
p941
sg12
g13
(g14
g15
NtRp942
(dp943
g18
I1
sg19
I0
sg20
I976
sg21
I0
sg22
I0
sg23
I441
sg24
I0
sbssg25
S'Kd\xfd\xe5\xe3\xc4\x03r\x1b@\x1e3\xb2\x8dIT'
p944
ssS'venv_lib_python2_7_site-packages_sqlalchemy_dialects_sqlite_pysqlite'
p945
(dp946
g6
(dp947
g8
S'venv_lib_python2_7_site-packages_sqlalchemy_dialects_sqlite_pysqlite.html'
p948
sg10
S'venv/lib/python2.7/site-packages/sqlalchemy/dialects/sqlite/pysqlite'
p949
sg12
g13
(g14
g15
NtRp950
(dp951
g18
I1
sg19
I0
sg20
I67
sg21
I0
sg22
I0
sg23
I16
sg24
I0
sbssg25
S'\x89y\xed\xb9\x18\xfa\x99W\x1d\xf2Z\x94\x92+4G'
p952
ssS'venv_lib_python2_7_site-packages_sqlalchemy_orm_strategy_options'
p953
(dp954
g6
(dp955
g8
S'venv_lib_python2_7_site-packages_sqlalchemy_orm_strategy_options.html'
p956
sg10
S'venv/lib/python2.7/site-packages/sqlalchemy/orm/strategy_options'
p957
sg12
g13
(g14
g15
NtRp958
(dp959
g18
I1
sg19
I0
sg20
I328
sg21
I0
sg22
I0
sg23
I243
sg24
I0
sbssg25
S'\x1c\xfc\xfa\x16O\xf9\xa8\x1a!\xc6\xcc\xfc\xcc\xc9\x8b\xbd'
p960
ssS'venv_lib_python2_7_site-packages_sqlalchemy_orm_mapper'
p961
(dp962
g6
(dp963
g8
S'venv_lib_python2_7_site-packages_sqlalchemy_orm_mapper.html'
p964
sg10
S'venv/lib/python2.7/site-packages/sqlalchemy/orm/mapper'
p965
sg12
g13
(g14
g15
NtRp966
(dp967
g18
I1
sg19
I0
sg20
I902
sg21
I0
sg22
I0
sg23
I430
sg24
I0
sbssg25
S'\x10_\x8e\x0c4q\xc8\xc0P\x98"3\x90\x90\x80\x17'
p968
ssS'venv_lib_python2_7_site-packages_wtforms___init__'
p969
(dp970
g6
(dp971
g8
S'venv_lib_python2_7_site-packages_wtforms___init__.html'
p972
sg10
S'venv/lib/python2.7/site-packages/wtforms/__init__'
p973
sg12
g13
(g14
g15
NtRp974
(dp975
g18
I1
sg19
I0
sg20
I5
sg21
I0
sg22
I0
sg23
I0
sg24
I0
sbssg25
S'\xb8\x17|@{\xba\xf4Rs\xbf\xa8\xba\xa8\xc8&y'
p976
ssS'venv_lib_python2_7_site-packages_wtforms_widgets___init__'
p977
(dp978
g6
(dp979
g8
S'venv_lib_python2_7_site-packages_wtforms_widgets___init__.html'
p980
sg10
S'venv/lib/python2.7/site-packages/wtforms/widgets/__init__'
p981
sg12
g13
(g14
g15
NtRp982
(dp983
g18
I1
sg19
I0
sg20
I2
sg21
I0
sg22
I0
sg23
I0
sg24
I0
sbssg25
S'\xb7\xdd\xd5\x82\x17\xa4\xfeh?\xf5\xe8\xe5\xe6\x8blQ'
p984
ssS'venv_lib_python2_7_site-packages_sqlalchemy_engine_threadlocal'
p985
(dp986
g6
(dp987
g8
S'venv_lib_python2_7_site-packages_sqlalchemy_engine_threadlocal.html'
p988
sg10
S'venv/lib/python2.7/site-packages/sqlalchemy/engine/threadlocal'
p989
sg12
g13
(g14
g15
NtRp990
(dp991
g18
I1
sg19
I0
sg20
I80
sg21
I0
sg22
I0
sg23
I55
sg24
I0
sbssg25
S'(\xce\x89\x9ekZ4\xde!|bJ\xcd\xa9\xc8\xbf'
p992
ssS'venv_lib_python2_7_site-packages_sqlalchemy_engine_base'
p993
(dp994
g6
(dp995
g8
S'venv_lib_python2_7_site-packages_sqlalchemy_engine_base.html'
p996
sg10
S'venv/lib/python2.7/site-packages/sqlalchemy/engine/base'
p997
sg12
g13
(g14
g15
NtRp998
(dp999
g18
I1
sg19
I0
sg20
I658
sg21
I0
sg22
I0
sg23
I298
sg24
I0
sbssg25
S'8\x9f\x9bOr\xdc\xc7E\x97\xa7R\x07dv\x0c$'
p1000
ssS'venv_lib_python2_7_site-packages_flask_debughelpers'
p1001
(dp1002
g6
(dp1003
g8
S'venv_lib_python2_7_site-packages_flask_debughelpers.html'
p1004
sg10
S'venv/lib/python2.7/site-packages/flask/debughelpers'
p1005
sg12
g13
(g14
g15
NtRp1006
(dp1007
g18
I1
sg19
I0
sg20
I35
sg21
I0
sg22
I0
sg23
I25
sg24
I0
sbssg25
S'\xb1\x83\xab\xaa\xfbi\x87\xe1\x0515\x06\xb8\xe5\xcd\xa5'
p1008
ssS'venv_lib_python2_7_site-packages_sqlalchemy_engine_interfaces'
p1009
(dp1010
g6
(dp1011
g8
S'venv_lib_python2_7_site-packages_sqlalchemy_engine_interfaces.html'
p1012
sg10
S'venv/lib/python2.7/site-packages/sqlalchemy/engine/interfaces'
p1013
sg12
g13
(g14
g15
NtRp1014
(dp1015
g18
I1
sg19
I0
sg20
I131
sg21
I0
sg22
I0
sg23
I54
sg24
I0
sbssg25
S'\xe0\xd0\xa2\xad3\x80\x14X\xc8\xea]\x9ai\x0b\xfds'
p1016
ssS'venv_lib_python2_7_site-packages_sqlalchemy_dialects_sqlite___init__'
p1017
(dp1018
g6
(dp1019
g8
S'venv_lib_python2_7_site-packages_sqlalchemy_dialects_sqlite___init__.html'
p1020
sg10
S'venv/lib/python2.7/site-packages/sqlalchemy/dialects/sqlite/__init__'
p1021
sg12
g13
(g14
g15
NtRp1022
(dp1023
g18
I1
sg19
I0
sg20
I4
sg21
I0
sg22
I0
sg23
I0
sg24
I0
sbssg25
S'!w\xed{=\x16-\xd6\x02\x1b\x93Z\xebO\xe4\x14'
p1024
ssS'venv_lib_python2_7_site-packages_flask_blueprints'
p1025
(dp1026
g6
(dp1027
g8
S'venv_lib_python2_7_site-packages_flask_blueprints.html'
p1028
sg10
S'venv/lib/python2.7/site-packages/flask/blueprints'
p1029
sg12
g13
(g14
g15
NtRp1030
(dp1031
g18
I1
sg19
I0
sg20
I156
sg21
I0
sg22
I0
sg23
I118
sg24
I0
sbssg25
S'1D\xa1\x05E/\x93\xfd|\xb3q\xa6\x8a\xa6\xcc9'
p1032
ssS'venv_lib_python2_7_site-packages_sqlalchemy_orm_persistence'
p1033
(dp1034
g6
(dp1035
g8
S'venv_lib_python2_7_site-packages_sqlalchemy_orm_persistence.html'
p1036
sg10
S'venv/lib/python2.7/site-packages/sqlalchemy/orm/persistence'
p1037
sg12
g13
(g14
g15
NtRp1038
(dp1039
g18
I1
sg19
I0
sg20
I464
sg21
I0
sg22
I0
sg23
I246
sg24
I0
sbssg25
S'\xf5\x93<\xf1\xf0\xc7BOFS\xd3\xe2\xdbp\x86:'
p1040
ssS'venv_lib_python2_7_site-packages_flask_sqlalchemy___init__'
p1041
(dp1042
g6
(dp1043
g8
S'venv_lib_python2_7_site-packages_flask_sqlalchemy___init__.html'
p1044
sg10
S'venv/lib/python2.7/site-packages/flask_sqlalchemy/__init__'
p1045
sg12
g13
(g14
g15
NtRp1046
(dp1047
g18
I1
sg19
I0
sg20
I446
sg21
I0
sg22
I0
sg23
I112
sg24
I0
sbssg25
S'\x1b\xd0.\x10\x9e\xf8[\xe9\xef\x8aA\xfb\x9e 5$'
p1048
ssS'venv_lib_python2_7_site-packages_flask_wtf_recaptcha_widgets'
p1049
(dp1050
g6
(dp1051
g8
S'venv_lib_python2_7_site-packages_flask_wtf_recaptcha_widgets.html'
p1052
sg10
S'venv/lib/python2.7/site-packages/flask_wtf/recaptcha/widgets'
p1053
sg12
g13
(g14
g15
NtRp1054
(dp1055
g18
I1
sg19
I0
sg20
I15
sg21
I0
sg22
I0
sg23
I7
sg24
I0
sbssg25
S'\x1c\r3\xa9\xc8X\xd3\x07p\xa7\x18F\x9c\xf5E\xe6'
p1056
ssS'venv_lib_python2_7_site-packages_flask_ctx'
p1057
(dp1058
g6
(dp1059
g8
S'venv_lib_python2_7_site-packages_flask_ctx.html'
p1060
sg10
S'venv/lib/python2.7/site-packages/flask/ctx'
p1061
sg12
g13
(g14
g15
NtRp1062
(dp1063
g18
I1
sg19
I0
sg20
I140
sg21
I0
sg22
I0
sg23
I37
sg24
I0
sbssg25
S'\x8e\x9a\x06\x1e\x02?\xc8\xb0\x19c[@\xb4\x9b=&'
p1064
ssS'venv_lib_python2_7_site-packages_sqlalchemy_dialects_sqlite_base'
p1065
(dp1066
g6
(dp1067
g8
S'venv_lib_python2_7_site-packages_sqlalchemy_dialects_sqlite_base.html'
p1068
sg10
S'venv/lib/python2.7/site-packages/sqlalchemy/dialects/sqlite/base'
p1069
sg12
g13
(g14
g15
NtRp1070
(dp1071
g18
I1
sg19
I0
sg20
I429
sg21
I0
sg22
I0
sg23
I251
sg24
I0
sbssg25
S'\x1b\x9e\x9e\x1fvE\xf5\xd6[\x8d =\x08\xe2\x15\x95'
p1072
ssS'venv_lib_python2_7_site-packages_sqlalchemy_sql_compiler'
p1073
(dp1074
g6
(dp1075
g8
S'venv_lib_python2_7_site-packages_sqlalchemy_sql_compiler.html'
p1076
sg10
S'venv/lib/python2.7/site-packages/sqlalchemy/sql/compiler'
p1077
sg12
g13
(g14
g15
NtRp1078
(dp1079
g18
I1
sg19
I0
sg20
I1373
sg21
I0
sg22
I0
sg23
I683
sg24
I0
sbssg25
S'\x9a\xebgW_(Ul"\xc9\x7f4\x17\x16\xcd\x17'
p1080
ssS'venv_lib_python2_7_site-packages_sqlalchemy_sql_dml'
p1081
(dp1082
g6
(dp1083
g8
S'venv_lib_python2_7_site-packages_sqlalchemy_sql_dml.html'
p1084
sg10
S'venv/lib/python2.7/site-packages/sqlalchemy/sql/dml'
p1085
sg12
g13
(g14
g15
NtRp1086
(dp1087
g18
I1
sg19
I0
sg20
I153
sg21
I0
sg22
I0
sg23
I65
sg24
I0
sbssg25
S'\xaa\x9a\x03\x93\xa5\x80f\xa5c\xb7\x8a\xf0\xf5?\x90\xd6'
p1088
ssS'venv_lib_python2_7_site-packages_sqlalchemy_sql_functions'
p1089
(dp1090
g6
(dp1091
g8
S'venv_lib_python2_7_site-packages_sqlalchemy_sql_functions.html'
p1092
sg10
S'venv/lib/python2.7/site-packages/sqlalchemy/sql/functions'
p1093
sg12
g13
(g14
g15
NtRp1094
(dp1095
g18
I1
sg19
I0
sg20
I170
sg21
I0
sg22
I0
sg23
I69
sg24
I0
sbssg25
S'j\\^SdE\x93i\xb5\xf4\x9ai\x95<q\xcc'
p1096
ssS'venv_lib_python2_7_site-packages_sqlalchemy_event_registry'
p1097
(dp1098
g6
(dp1099
g8
S'venv_lib_python2_7_site-packages_sqlalchemy_event_registry.html'
p1100
sg10
S'venv/lib/python2.7/site-packages/sqlalchemy/event/registry'
p1101
sg12
g13
(g14
g15
NtRp1102
(dp1103
g18
I1
sg19
I0
sg20
I130
sg21
I0
sg22
I0
sg23
I66
sg24
I0
sbssg25
S'uv8\x05\xa6@!\x12\x94\x8eSK\xbdu2\x9e'
p1104
ssS'venv_lib_python2_7_site-packages_markupsafe__compat'
p1105
(dp1106
g6
(dp1107
g8
S'venv_lib_python2_7_site-packages_markupsafe__compat.html'
p1108
sg10
S'venv/lib/python2.7/site-packages/markupsafe/_compat'
p1109
sg12
g13
(g14
g15
NtRp1110
(dp1111
g18
I1
sg19
I0
sg20
I14
sg21
I0
sg22
I0
sg23
I5
sg24
I0
sbssg25
S'\x99\x16\xdbp\x85/\x12e\xfa.\xcb\xca\xb3T\x01\xdd'
p1112
ssS'venv_lib_python2_7_site-packages_jinja2_loaders'
p1113
(dp1114
g6
(dp1115
g8
S'venv_lib_python2_7_site-packages_jinja2_loaders.html'
p1116
sg10
S'venv/lib/python2.7/site-packages/jinja2/loaders'
p1117
sg12
g13
(g14
g15
NtRp1118
(dp1119
g18
I1
sg19
I0
sg20
I221
sg21
I0
sg22
I0
sg23
I136
sg24
I0
sbssg25
S'\x83&\xd8\xa0D\xd5\xfe\xbf\xb7@\xe28D\xf6\xc7]'
p1120
ssS'venv_lib_python2_7_site-packages_sqlalchemy_engine_strategies'
p1121
(dp1122
g6
(dp1123
g8
S'venv_lib_python2_7_site-packages_sqlalchemy_engine_strategies.html'
p1124
sg10
S'venv/lib/python2.7/site-packages/sqlalchemy/engine/strategies'
p1125
sg12
g13
(g14
g15
NtRp1126
(dp1127
g18
I1
sg19
I0
sg20
I130
sg21
I0
sg22
I0
sg23
I46
sg24
I0
sbssg25
S'-<F\x08\xe1\xeb\xd4\xbb>\x90\x12\xbc5E5\xdf'
p1128
ssS'venv_lib_python2_7_site-packages_wtforms_fields_simple'
p1129
(dp1130
g6
(dp1131
g8
S'venv_lib_python2_7_site-packages_wtforms_fields_simple.html'
p1132
sg10
S'venv/lib/python2.7/site-packages/wtforms/fields/simple'
p1133
sg12
g13
(g14
g15
NtRp1134
(dp1135
g18
I1
sg19
I0
sg20
I18
sg21
I0
sg22
I0
sg23
I2
sg24
I0
sbssg25
S'4\x04NG\x11\xd5\x92 \xaa\xaf\xff\x1e\xd5f\xa7\x9c'
p1136
ssS'venv_lib_python2_7_site-packages_werkzeug__compat'
p1137
(dp1138
g6
(dp1139
g8
S'venv_lib_python2_7_site-packages_werkzeug__compat.html'
p1140
sg10
S'venv/lib/python2.7/site-packages/werkzeug/_compat'
p1141
sg12
g13
(g14
g15
NtRp1142
(dp1143
g18
I1
sg19
I0
sg20
I146
sg21
I0
sg22
I0
sg23
I68
sg24
I0
sbssg25
S'\x89o\xedgb\xd6*S\x1d\xd2\xa4\xac\x0e\xf2R|'
p1144
ssS'venv_lib_python2_7_site-packages_sqlalchemy_ext_declarative_api'
p1145
(dp1146
g6
(dp1147
g8
S'venv_lib_python2_7_site-packages_sqlalchemy_ext_declarative_api.html'
p1148
sg10
S'venv/lib/python2.7/site-packages/sqlalchemy/ext/declarative/api'
p1149
sg12
g13
(g14
g15
NtRp1150
(dp1151
g18
I1
sg19
I0
sg20
I118
sg21
I0
sg22
I0
sg23
I70
sg24
I0
sbssg25
S'\x08<\x04V\x95W\x009e\xd2\xd9\x02\x16\xcal\xc7'
p1152
ssS'venv_lib_python2_7_site-packages_flask__compat'
p1153
(dp1154
g6
(dp1155
g8
S'venv_lib_python2_7_site-packages_flask__compat.html'
p1156
sg10
S'venv/lib/python2.7/site-packages/flask/_compat'
p1157
sg12
g13
(g14
g15
NtRp1158
(dp1159
g18
I1
sg19
I0
sg20
I38
sg21
I0
sg22
I0
sg23
I20
sg24
I0
sbssg25
S's\xcd\x8a\xd4\xc2\xb9\x888\x0c\x97\xf4\x02\xc7\xcf\xf3\xeb'
p1160
ssS'venv_lib_python2_7_site-packages_sqlalchemy_orm_events'
p1161
(dp1162
g6
(dp1163
g8
S'venv_lib_python2_7_site-packages_sqlalchemy_orm_events.html'
p1164
sg10
S'venv/lib/python2.7/site-packages/sqlalchemy/orm/events'
p1165
sg12
g13
(g14
g15
NtRp1166
(dp1167
g18
I1
sg19
I0
sg20
I257
sg21
I0
sg22
I0
sg23
I100
sg24
I0
sbssg25
S'>\xfb\x85\x8c\x08\x07{\xbb\xea\xc3A\x95\x7f4~\xe6'
p1168
ssS'test'
p1169
(dp1170
g6
(dp1171
g8
S'test.html'
p1172
sg10
g1169
sg12
g13
(g14
g15
NtRp1173
(dp1174
g18
I1
sg19
I0
sg20
I120
sg21
I0
sg22
I0
sg23
I1
sg24
I0
sbssg25
S'c\xb1+\xf3\xa0X\xbdr\xb7\xa4>\xbb\xa8U\xdc\x19'
p1175
ssS'venv_lib_python2_7_site-packages_flask_wtf_i18n'
p1176
(dp1177
g6
(dp1178
g8
S'venv_lib_python2_7_site-packages_flask_wtf_i18n.html'
p1179
sg10
S'venv/lib/python2.7/site-packages/flask_wtf/i18n'
p1180
sg12
g13
(g14
g15
NtRp1181
(dp1182
g18
I1
sg19
I0
sg20
I39
sg21
I0
sg22
I0
sg23
I36
sg24
I0
sbssg25
S"\xfd,\n/'\xd3eK\x1dg\xfb&w\xe9\x9b\xca"
p1183
ssS'venv_lib_python2_7_site-packages_sqlalchemy_util_queue'
p1184
(dp1185
g6
(dp1186
g8
S'venv_lib_python2_7_site-packages_sqlalchemy_util_queue.html'
p1187
sg10
S'venv/lib/python2.7/site-packages/sqlalchemy/util/queue'
p1188
sg12
g13
(g14
g15
NtRp1189
(dp1190
g18
I1
sg19
I0
sg20
I88
sg21
I0
sg22
I0
sg23
I64
sg24
I0
sbssg25
S'z\xeb\xc4\xf8\xc0~\xf4\xfc\x93\xbb\xe7\x13M\xf1x}'
p1191
ssS'venv_lib_python2_7_site-packages_sqlalchemy_orm_scoping'
p1192
(dp1193
g6
(dp1194
g8
S'venv_lib_python2_7_site-packages_sqlalchemy_orm_scoping.html'
p1195
sg10
S'venv/lib/python2.7/site-packages/sqlalchemy/orm/scoping'
p1196
sg12
g13
(g14
g15
NtRp1197
(dp1198
g18
I1
sg19
I0
sg20
I63
sg21
I0
sg22
I0
sg23
I26
sg24
I0
sbssg25
S'\xe6\x98E\xa6\x16,wc\xbcg!0\xa2\xe5\xd2T'
p1199
ssS'venv_lib_python2_7_site-packages_flask_globals'
p1200
(dp1201
g6
(dp1202
g8
S'venv_lib_python2_7_site-packages_flask_globals.html'
p1203
sg10
S'venv/lib/python2.7/site-packages/flask/globals'
p1204
sg12
g13
(g14
g15
NtRp1205
(dp1206
g18
I1
sg19
I0
sg20
I24
sg21
I0
sg22
I0
sg23
I6
sg24
I0
sbssg25
S'\x91\x03\x82\xe3\xc1,$\x9d\xd3{\x81\xf4v]\xbe\x08'
p1207
ssS'venv_lib_python2_7_site-packages_flask_app'
p1208
(dp1209
g6
(dp1210
g8
S'venv_lib_python2_7_site-packages_flask_app.html'
p1211
sg10
S'venv/lib/python2.7/site-packages/flask/app'
p1212
sg12
g13
(g14
g15
NtRp1213
(dp1214
g18
I1
sg19
I0
sg20
I528
sg21
I0
sg22
I0
sg23
I184
sg24
I0
sbssg25
S'\x08\rL\xa6\xc71\xf1u\x8e\xfb__\xfba\xea9'
p1215
ssS'venv_lib_python2_7_site-packages_jinja2_filters'
p1216
(dp1217
g6
(dp1218
g8
S'venv_lib_python2_7_site-packages_jinja2_filters.html'
p1219
sg10
S'venv/lib/python2.7/site-packages/jinja2/filters'
p1220
sg12
g13
(g14
g15
NtRp1221
(dp1222
g18
I1
sg19
I0
sg20
I343
sg21
I0
sg22
I0
sg23
I265
sg24
I0
sbssg25
S'\xef#\xc6\xad\x92\x96v^M\x9d\xf0\xfeR\xcal\xc5'
p1223
ssS'venv_lib_python2_7_site-packages_flask_wtf_recaptcha_validators'
p1224
(dp1225
g6
(dp1226
g8
S'venv_lib_python2_7_site-packages_flask_wtf_recaptcha_validators.html'
p1227
sg10
S'venv/lib/python2.7/site-packages/flask_wtf/recaptcha/validators'
p1228
sg12
g13
(g14
g15
NtRp1229
(dp1230
g18
I1
sg19
I0
sg20
I45
sg21
I0
sg22
I0
sg23
I31
sg24
I0
sbssg25
S'_\x9e\xc3\xff\xc2a}\x85\xe8\x97\xe9\xd0\x17;f?'
p1231
ssS'models'
p1232
(dp1233
g6
(dp1234
g8
S'models.html'
p1235
sg10
g1232
sg12
g13
(g14
g15
NtRp1236
(dp1237
g18
I1
sg19
I0
sg20
I33
sg21
I0
sg22
I0
sg23
I2
sg24
I0
sbssg25
S'|\xf7\xd8\xb5e\xb1\x81\xf2\xdd.\xc6\x99\xda\xe5%x'
p1238
ssS'venv_lib_python2_7_site-packages_sqlalchemy_sql_type_api'
p1239
(dp1240
g6
(dp1241
g8
S'venv_lib_python2_7_site-packages_sqlalchemy_sql_type_api.html'
p1242
sg10
S'venv/lib/python2.7/site-packages/sqlalchemy/sql/type_api'
p1243
sg12
g13
(g14
g15
NtRp1244
(dp1245
g18
I1
sg19
I0
sg20
I262
sg21
I0
sg22
I0
sg23
I124
sg24
I0
sbssg25
S'\xdf\x85K2\xc1\xd5\xba\xa7\xcb\xa6\x90D\x8c\xf5\x1f\xc6'
p1246
ssS'venv_lib_python2_7_site-packages_werkzeug___init__'
p1247
(dp1248
g6
(dp1249
g8
S'venv_lib_python2_7_site-packages_werkzeug___init__.html'
p1250
sg10
S'venv/lib/python2.7/site-packages/werkzeug/__init__'
p1251
sg12
g13
(g14
g15
NtRp1252
(dp1253
g18
I1
sg19
I0
sg20
I29
sg21
I0
sg22
I0
sg23
I4
sg24
I0
sbssg25
S'\xeb-_\xe8\xbbT\x0e\xd5\x8b\xdb\x87\xab\xd6m\xf6,'
p1254
ssS'venv_lib_python2_7_site-packages_sqlalchemy_schema'
p1255
(dp1256
g6
(dp1257
g8
S'venv_lib_python2_7_site-packages_sqlalchemy_schema.html'
p1258
sg10
S'venv/lib/python2.7/site-packages/sqlalchemy/schema'
p1259
sg12
g13
(g14
g15
NtRp1260
(dp1261
g18
I1
sg19
I0
sg20
I5
sg21
I0
sg22
I0
sg23
I0
sg24
I0
sbssg25
S'AY\x95\xf3\xd3\x9e\x87\xc6\x9c\x97\xa0\xe4Ry\xa2<'
p1262
ssS'venv_lib_python2_7_site-packages_sqlalchemy_sql_base'
p1263
(dp1264
g6
(dp1265
g8
S'venv_lib_python2_7_site-packages_sqlalchemy_sql_base.html'
p1266
sg10
S'venv/lib/python2.7/site-packages/sqlalchemy/sql/base'
p1267
sg12
g13
(g14
g15
NtRp1268
(dp1269
g18
I1
sg19
I0
sg20
I271
sg21
I0
sg22
I0
sg23
I138
sg24
I0
sbssg25
S'\xd4#\x15\x0c\x92\x18\x11\xbd^S\x83\xbf\xf91Ku'
p1270
ssS'venv_lib_python2_7_site-packages_sqlalchemy_orm_path_registry'
p1271
(dp1272
g6
(dp1273
g8
S'venv_lib_python2_7_site-packages_sqlalchemy_orm_path_registry.html'
p1274
sg10
S'venv/lib/python2.7/site-packages/sqlalchemy/orm/path_registry'
p1275
sg12
g13
(g14
g15
NtRp1276
(dp1277
g18
I1
sg19
I0
sg20
I139
sg21
I0
sg22
I0
sg23
I50
sg24
I0
sbssg25
S'\xbe\xa3r\xb0\xe8\xc48\xdd\xa2Lt\x93o\xa9\x87\xce'
p1278
ssS'venv_lib_python2_7_site-packages_werkzeug__internal'
p1279
(dp1280
g6
(dp1281
g8
S'venv_lib_python2_7_site-packages_werkzeug__internal.html'
p1282
sg10
S'venv/lib/python2.7/site-packages/werkzeug/_internal'
p1283
sg12
g13
(g14
g15
NtRp1284
(dp1285
g18
I1
sg19
I0
sg20
I235
sg21
I0
sg22
I0
sg23
I137
sg24
I0
sbssg25
S'\xe2\xe2\xa6\x14\x19\xe0\xae2b\x17\x9flm\xa0\xe1Q'
p1286
ssS'venv_lib_python2_7_site-packages_sqlalchemy_sql___init__'
p1287
(dp1288
g6
(dp1289
g8
S'venv_lib_python2_7_site-packages_sqlalchemy_sql___init__.html'
p1290
sg10
S'venv/lib/python2.7/site-packages/sqlalchemy/sql/__init__'
p1291
sg12
g13
(g14
g15
NtRp1292
(dp1293
g18
I1
sg19
I0
sg20
I15
sg21
I0
sg22
I0
sg23
I0
sg24
I0
sbssg25
S'\xbfDb\\sZv\xe2\x06\xb7g\x95<\xd8\x8e\xaf'
p1294
ssS'venv_lib_python2_7_site-packages_wtforms_ext_csrf___init__'
p1295
(dp1296
g6
(dp1297
g8
S'venv_lib_python2_7_site-packages_wtforms_ext_csrf___init__.html'
p1298
sg10
S'venv/lib/python2.7/site-packages/wtforms/ext/csrf/__init__'
p1299
sg12
g13
(g14
g15
NtRp1300
(dp1301
g18
I1
sg19
I0
sg20
I1
sg21
I0
sg22
I0
sg23
I0
sg24
I0
sbssg25
S'\x00dH\xb0G\xd3\x88\xe75\x1e?\xd3W\x82\x93o'
p1302
ssS'venv_lib_python2_7_site-packages_flask_exthook'
p1303
(dp1304
g6
(dp1305
g8
S'venv_lib_python2_7_site-packages_flask_exthook.html'
p1306
sg10
S'venv/lib/python2.7/site-packages/flask/exthook'
p1307
sg12
g13
(g14
g15
NtRp1308
(dp1309
g18
I1
sg19
I0
sg20
I54
sg21
I0
sg22
I0
sg23
I24
sg24
I0
sbssg25
S'\x81\xa8\x93h\x123\rtT\xd2\xe8\x8ejs\x0f\x12'
p1310
ssS'venv_lib_python2_7_site-packages_sqlalchemy_engine_reflection'
p1311
(dp1312
g6
(dp1313
g8
S'venv_lib_python2_7_site-packages_sqlalchemy_engine_reflection.html'
p1314
sg10
S'venv/lib/python2.7/site-packages/sqlalchemy/engine/reflection'
p1315
sg12
g13
(g14
g15
NtRp1316
(dp1317
g18
I1
sg19
I0
sg20
I165
sg21
I0
sg22
I0
sg23
I137
sg24
I0
sbssg25
S'F\xde\xf8;7\xadQ0c\xc2\x83\x83\xc9\xe6\xc7\xda'
p1318
ssS'venv_lib_python2_7_site-packages_flask_templating'
p1319
(dp1320
g6
(dp1321
g8
S'venv_lib_python2_7_site-packages_flask_templating.html'
p1322
sg10
S'venv/lib/python2.7/site-packages/flask/templating'
p1323
sg12
g13
(g14
g15
NtRp1324
(dp1325
g18
I1
sg19
I0
sg20
I78
sg21
I0
sg22
I0
sg23
I34
sg24
I0
sbssg25
S'B\xd9X\x88\xedF\x9e\xea\xbbR\xdb\xb8\x8e\xd0\x89\x9b'
p1326
ssS'_config'
p1327
(dp1328
g6
(dp1329
g8
S'_config.html'
p1330
sg10
g1327
sg12
g13
(g14
g15
NtRp1331
(dp1332
g18
I1
sg19
I0
sg20
I7
sg21
I0
sg22
I0
sg23
I0
sg24
I0
sbssg25
S'\xaeo\xa8\x01\xca\x05\x18\x1e\xb8\xd3cK\t\x11\x83u'
p1333
ssS'venv_lib_python2_7_site-packages_sqlalchemy_orm_collections'
p1334
(dp1335
g6
(dp1336
g8
S'venv_lib_python2_7_site-packages_sqlalchemy_orm_collections.html'
p1337
sg10
S'venv/lib/python2.7/site-packages/sqlalchemy/orm/collections'
p1338
sg12
g13
(g14
g15
NtRp1339
(dp1340
g18
I1
sg19
I0
sg20
I691
sg21
I0
sg22
I0
sg23
I391
sg24
I0
sbssg25
S'B\xa7{\xf3\xdb\x14p\x8b\xca\xbf\xf9\xc6&\xe5\xabB'
p1341
ssS'venv_lib_python2_7_site-packages_wtforms_form'
p1342
(dp1343
g6
(dp1344
g8
S'venv_lib_python2_7_site-packages_wtforms_form.html'
p1345
sg10
S'venv/lib/python2.7/site-packages/wtforms/form'
p1346
sg12
g13
(g14
g15
NtRp1347
(dp1348
g18
I1
sg19
I0
sg20
I129
sg21
I0
sg22
I0
sg23
I35
sg24
I0
sbssg25
S';X\t\xfd.\x8e\xd6\x9be\xb0$\xaa\xa6\x02\x96\xfb'
p1349
ssS'venv_lib_python2_7_site-packages_wtforms_widgets_core'
p1350
(dp1351
g6
(dp1352
g8
S'venv_lib_python2_7_site-packages_wtforms_widgets_core.html'
p1353
sg10
S'venv/lib/python2.7/site-packages/wtforms/widgets/core'
p1354
sg12
g13
(g14
g15
NtRp1355
(dp1356
g18
I1
sg19
I0
sg20
I126
sg21
I0
sg22
I0
sg23
I44
sg24
I0
sbssg25
S'\xe6M#/\xc7\xfb\xb8a\xd8Q\xeb\xdc\xad\xc6\xb5\x10'
p1357
ssS'venv_lib_python2_7_site-packages_werkzeug_routing'
p1358
(dp1359
g6
(dp1360
g8
S'venv_lib_python2_7_site-packages_werkzeug_routing.html'
p1361
sg10
S'venv/lib/python2.7/site-packages/werkzeug/routing'
p1362
sg12
g13
(g14
g15
NtRp1363
(dp1364
g18
I1
sg19
I0
sg20
I593
sg21
I0
sg22
I0
sg23
I227
sg24
I0
sbssg25
S'\x95\x12\xbe\xa7\xc2f\x8f\xb2\xd4L<\xb8a\x8a)\xe0'
p1365
ssS'venv_lib_python2_7_site-packages_sqlalchemy_engine_url'
p1366
(dp1367
g6
(dp1368
g8
S'venv_lib_python2_7_site-packages_sqlalchemy_engine_url.html'
p1369
sg10
S'venv/lib/python2.7/site-packages/sqlalchemy/engine/url'
p1370
sg12
g13
(g14
g15
NtRp1371
(dp1372
g18
I1
sg19
I0
sg20
I110
sg21
I0
sg22
I0
sg23
I56
sg24
I0
sbssg25
S'\xb8|\xcfe\t\xff\x85 M\x1f\x97\xfd\xb0\xa1\xd94'
p1373
ssS'venv_lib_python2_7_site-packages_sqlalchemy_orm_state'
p1374
(dp1375
g6
(dp1376
g8
S'venv_lib_python2_7_site-packages_sqlalchemy_orm_state.html'
p1377
sg10
S'venv/lib/python2.7/site-packages/sqlalchemy/orm/state'
p1378
sg12
g13
(g14
g15
NtRp1379
(dp1380
g18
I1
sg19
I0
sg20
I255
sg21
I0
sg22
I0
sg23
I115
sg24
I0
sbssg25
S'\x07\xeal\xb6\xb7\xcc\xfd\xec\xbf\xa8\x1e\xdbo\xdd\xeb\xb6'
p1381
ssS'venv_lib_python2_7_site-packages_wtforms_i18n'
p1382
(dp1383
g6
(dp1384
g8
S'venv_lib_python2_7_site-packages_wtforms_i18n.html'
p1385
sg10
S'venv/lib/python2.7/site-packages/wtforms/i18n'
p1386
sg12
g13
(g14
g15
NtRp1387
(dp1388
g18
I1
sg19
I0
sg20
I29
sg21
I0
sg22
I0
sg23
I17
sg24
I0
sbssg25
S'\x10\x91\xe7@\xd9Ga\xb3\x88\x08K\xe1b\x04\xb8\xf6'
p1389
ssS'venv_lib_python2_7_site-packages_sqlalchemy_sql_default_comparator'
p1390
(dp1391
g6
(dp1392
g8
S'venv_lib_python2_7_site-packages_sqlalchemy_sql_default_comparator.html'
p1393
sg10
S'venv/lib/python2.7/site-packages/sqlalchemy/sql/default_comparator'
p1394
sg12
g13
(g14
g15
NtRp1395
(dp1396
g18
I1
sg19
I0
sg20
I103
sg21
I0
sg22
I0
sg23
I63
sg24
I0
sbssg25
S'\x94Q1\x8d\xcaU\x89\x9b\xf3\x94\x87%/;\xf1G'
p1397
ssS'venv_lib_python2_7_site-packages_flask_wtf_recaptcha___init__'
p1398
(dp1399
g6
(dp1400
g8
S'venv_lib_python2_7_site-packages_flask_wtf_recaptcha___init__.html'
p1401
sg10
S'venv/lib/python2.7/site-packages/flask_wtf/recaptcha/__init__'
p1402
sg12
g13
(g14
g15
NtRp1403
(dp1404
g18
I1
sg19
I0
sg20
I3
sg21
I0
sg22
I0
sg23
I0
sg24
I0
sbssg25
S'4\x19\xb3FA\xfcS%\x10\xd6\x1b\xfa\x01\x97\xd2\xb2'
p1405
ssS'venv_lib_python2_7_site-packages_jinja2_nodes'
p1406
(dp1407
g6
(dp1408
g8
S'venv_lib_python2_7_site-packages_jinja2_nodes.html'
p1409
sg10
S'venv/lib/python2.7/site-packages/jinja2/nodes'
p1410
sg12
g13
(g14
g15
NtRp1411
(dp1412
g18
I1
sg19
I0
sg20
I423
sg21
I0
sg22
I0
sg23
I153
sg24
I0
sbssg25
S'\xb6\xb6\xf0\x92\x15\xd0\xb2 \x0b"Y\x16\x8b\xef!\x99'
p1413
ssS'venv_lib_python2_7_site-packages_flask_signals'
p1414
(dp1415
g6
(dp1416
g8
S'venv_lib_python2_7_site-packages_flask_signals.html'
p1417
sg10
S'venv/lib/python2.7/site-packages/flask/signals'
p1418
sg12
g13
(g14
g15
NtRp1419
(dp1420
g18
I1
sg19
I0
sg20
I28
sg21
I0
sg22
I0
sg23
I2
sg24
I0
sbssg25
S'\x00\xe95\xfbqr\xe7\xe9k\xed\xaaT\xc5\xe1\xa5L'
p1421
sssS'version'
p1422
S'3.7.1'
p1423
sS'settings'
p1424
S'J\xf5\xb5\xef\xbe\xbcF\xaf\xcd\x10\x9e?\x82\xaf\xda\xbc'
p1425
sS'format'
p1426
I1
s.